
D:\src\UIAPduino\src\cw_decoder2_for_uiap_st7789v\.pio\build\ch32v003f4p6_evt_r0/firmware.elf:     file format elf32-littleriscv


Disassembly of section .init:

00000000 <InterruptVector>:
   0:	0cc0106f          	j	10cc <handle_reset>
   4:	00000000          	.word	0x00000000
   8:	0000113e          	.word	0x0000113e
   c:	0000114c          	.word	0x0000114c
	...
  30:	0000114c          	.word	0x0000114c
  34:	00000000          	.word	0x00000000
  38:	0000114c          	.word	0x0000114c
  3c:	00000000          	.word	0x00000000
  40:	0000114c          	.word	0x0000114c
  44:	0000114c          	.word	0x0000114c
  48:	0000114c          	.word	0x0000114c
  4c:	0000114c          	.word	0x0000114c
  50:	0000114c          	.word	0x0000114c
  54:	0000114c          	.word	0x0000114c
  58:	0000114c          	.word	0x0000114c
  5c:	0000114c          	.word	0x0000114c
  60:	0000114c          	.word	0x0000114c
  64:	0000114c          	.word	0x0000114c
  68:	0000114c          	.word	0x0000114c
  6c:	0000114c          	.word	0x0000114c
  70:	0000114c          	.word	0x0000114c
  74:	0000114c          	.word	0x0000114c
  78:	0000114c          	.word	0x0000114c
  7c:	0000114c          	.word	0x0000114c
  80:	0000114c          	.word	0x0000114c
  84:	0000114c          	.word	0x0000114c
  88:	0000114c          	.word	0x0000114c
  8c:	0000114c          	.word	0x0000114c
  90:	0000114c          	.word	0x0000114c
  94:	0000114c          	.word	0x0000114c
  98:	0000114c          	.word	0x0000114c
  9c:	0000                	unimp
	...

Disassembly of section .text:

000000a0 <__gedf2>:
      a0:	1161                	addi	sp,sp,-8
      a2:	0145d293          	srli	t0,a1,0x14
      a6:	001007b7          	lui	a5,0x100
      aa:	17fd                	addi	a5,a5,-1 # fffff <fix_fft.cpp.5eff4be4+0xf71f7>
      ac:	c026                	sw	s1,0(sp)
      ae:	872a                	mv	a4,a0
      b0:	83aa                	mv	t2,a0
      b2:	c222                	sw	s0,4(sp)
      b4:	0146d513          	srli	a0,a3,0x14
      b8:	7ff2f293          	andi	t0,t0,2047
      bc:	7ff00493          	li	s1,2047
      c0:	00b7f333          	and	t1,a5,a1
      c4:	7ff57513          	andi	a0,a0,2047
      c8:	8ff5                	and	a5,a5,a3
      ca:	81fd                	srli	a1,a1,0x1f
      cc:	82fd                	srli	a3,a3,0x1f
      ce:	02929663          	bne	t0,s1,fa <__gedf2+0x5a>
      d2:	00e36333          	or	t1,t1,a4
      d6:	08031863          	bnez	t1,166 <__gedf2+0xc6>
      da:	00550663          	beq	a0,t0,e6 <__gedf2+0x46>
      de:	4505                	li	a0,1
      e0:	c989                	beqz	a1,f2 <__gedf2+0x52>
      e2:	557d                	li	a0,-1
      e4:	a039                	j	f2 <__gedf2+0x52>
      e6:	8e5d                	or	a2,a2,a5
      e8:	5579                	li	a0,-2
      ea:	e601                	bnez	a2,f2 <__gedf2+0x52>
      ec:	4501                	li	a0,0
      ee:	fed598e3          	bne	a1,a3,de <__gedf2+0x3e>
      f2:	4412                	lw	s0,4(sp)
      f4:	4482                	lw	s1,0(sp)
      f6:	0121                	addi	sp,sp,8
      f8:	8082                	ret
      fa:	02951563          	bne	a0,s1,124 <__gedf2+0x84>
      fe:	8e5d                	or	a2,a2,a5
     100:	5579                	li	a0,-2
     102:	fa65                	bnez	a2,f2 <__gedf2+0x52>
     104:	00028863          	beqz	t0,114 <__gedf2+0x74>
     108:	fcd59be3          	bne	a1,a3,de <__gedf2+0x3e>
     10c:	557d                	li	a0,-1
     10e:	d1f5                	beqz	a1,f2 <__gedf2+0x52>
     110:	852e                	mv	a0,a1
     112:	b7c5                	j	f2 <__gedf2+0x52>
     114:	00e36333          	or	t1,t1,a4
     118:	fe0318e3          	bnez	t1,108 <__gedf2+0x68>
     11c:	557d                	li	a0,-1
     11e:	daf1                	beqz	a3,f2 <__gedf2+0x52>
     120:	8536                	mv	a0,a3
     122:	bfc1                	j	f2 <__gedf2+0x52>
     124:	8432                	mv	s0,a2
     126:	02028363          	beqz	t0,14c <__gedf2+0xac>
     12a:	d955                	beqz	a0,de <__gedf2+0x3e>
     12c:	fad599e3          	bne	a1,a3,de <__gedf2+0x3e>
     130:	fa5547e3          	blt	a0,t0,de <__gedf2+0x3e>
     134:	fca2cce3          	blt	t0,a0,10c <__gedf2+0x6c>
     138:	fa67e3e3          	bltu	a5,t1,de <__gedf2+0x3e>
     13c:	fcf318e3          	bne	t1,a5,10c <__gedf2+0x6c>
     140:	f8746fe3          	bltu	s0,t2,de <__gedf2+0x3e>
     144:	4501                	li	a0,0
     146:	fa83f6e3          	bgeu	t2,s0,f2 <__gedf2+0x52>
     14a:	b7c9                	j	10c <__gedf2+0x6c>
     14c:	00e36733          	or	a4,t1,a4
     150:	c119                	beqz	a0,156 <__gedf2+0xb6>
     152:	d769                	beqz	a4,11c <__gedf2+0x7c>
     154:	bf55                	j	108 <__gedf2+0x68>
     156:	8e5d                	or	a2,a2,a5
     158:	c609                	beqz	a2,162 <__gedf2+0xc2>
     15a:	d369                	beqz	a4,11c <__gedf2+0x7c>
     15c:	fcd58ee3          	beq	a1,a3,138 <__gedf2+0x98>
     160:	bfbd                	j	de <__gedf2+0x3e>
     162:	db41                	beqz	a4,f2 <__gedf2+0x52>
     164:	bfad                	j	de <__gedf2+0x3e>
     166:	5579                	li	a0,-2
     168:	b769                	j	f2 <__gedf2+0x52>

0000016a <__ledf2>:
     16a:	1161                	addi	sp,sp,-8
     16c:	0145d293          	srli	t0,a1,0x14
     170:	001007b7          	lui	a5,0x100
     174:	17fd                	addi	a5,a5,-1 # fffff <fix_fft.cpp.5eff4be4+0xf71f7>
     176:	c026                	sw	s1,0(sp)
     178:	872a                	mv	a4,a0
     17a:	83aa                	mv	t2,a0
     17c:	c222                	sw	s0,4(sp)
     17e:	0146d513          	srli	a0,a3,0x14
     182:	7ff2f293          	andi	t0,t0,2047
     186:	7ff00493          	li	s1,2047
     18a:	00b7f333          	and	t1,a5,a1
     18e:	7ff57513          	andi	a0,a0,2047
     192:	8ff5                	and	a5,a5,a3
     194:	81fd                	srli	a1,a1,0x1f
     196:	82fd                	srli	a3,a3,0x1f
     198:	02929663          	bne	t0,s1,1c4 <__ledf2+0x5a>
     19c:	00e36333          	or	t1,t1,a4
     1a0:	08031863          	bnez	t1,230 <__ledf2+0xc6>
     1a4:	00550663          	beq	a0,t0,1b0 <__ledf2+0x46>
     1a8:	4505                	li	a0,1
     1aa:	c989                	beqz	a1,1bc <__ledf2+0x52>
     1ac:	557d                	li	a0,-1
     1ae:	a039                	j	1bc <__ledf2+0x52>
     1b0:	8e5d                	or	a2,a2,a5
     1b2:	4509                	li	a0,2
     1b4:	e601                	bnez	a2,1bc <__ledf2+0x52>
     1b6:	4501                	li	a0,0
     1b8:	fed598e3          	bne	a1,a3,1a8 <__ledf2+0x3e>
     1bc:	4412                	lw	s0,4(sp)
     1be:	4482                	lw	s1,0(sp)
     1c0:	0121                	addi	sp,sp,8
     1c2:	8082                	ret
     1c4:	02951563          	bne	a0,s1,1ee <__ledf2+0x84>
     1c8:	8e5d                	or	a2,a2,a5
     1ca:	4509                	li	a0,2
     1cc:	fa65                	bnez	a2,1bc <__ledf2+0x52>
     1ce:	00028863          	beqz	t0,1de <__ledf2+0x74>
     1d2:	fcd59be3          	bne	a1,a3,1a8 <__ledf2+0x3e>
     1d6:	557d                	li	a0,-1
     1d8:	d1f5                	beqz	a1,1bc <__ledf2+0x52>
     1da:	852e                	mv	a0,a1
     1dc:	b7c5                	j	1bc <__ledf2+0x52>
     1de:	00e36333          	or	t1,t1,a4
     1e2:	fe0318e3          	bnez	t1,1d2 <__ledf2+0x68>
     1e6:	557d                	li	a0,-1
     1e8:	daf1                	beqz	a3,1bc <__ledf2+0x52>
     1ea:	8536                	mv	a0,a3
     1ec:	bfc1                	j	1bc <__ledf2+0x52>
     1ee:	8432                	mv	s0,a2
     1f0:	02028363          	beqz	t0,216 <__ledf2+0xac>
     1f4:	d955                	beqz	a0,1a8 <__ledf2+0x3e>
     1f6:	fad599e3          	bne	a1,a3,1a8 <__ledf2+0x3e>
     1fa:	fa5547e3          	blt	a0,t0,1a8 <__ledf2+0x3e>
     1fe:	fca2cce3          	blt	t0,a0,1d6 <__ledf2+0x6c>
     202:	fa67e3e3          	bltu	a5,t1,1a8 <__ledf2+0x3e>
     206:	fcf318e3          	bne	t1,a5,1d6 <__ledf2+0x6c>
     20a:	f8746fe3          	bltu	s0,t2,1a8 <__ledf2+0x3e>
     20e:	4501                	li	a0,0
     210:	fa83f6e3          	bgeu	t2,s0,1bc <__ledf2+0x52>
     214:	b7c9                	j	1d6 <__ledf2+0x6c>
     216:	00e36733          	or	a4,t1,a4
     21a:	c119                	beqz	a0,220 <__ledf2+0xb6>
     21c:	d769                	beqz	a4,1e6 <__ledf2+0x7c>
     21e:	bf55                	j	1d2 <__ledf2+0x68>
     220:	8e5d                	or	a2,a2,a5
     222:	c609                	beqz	a2,22c <__ledf2+0xc2>
     224:	d369                	beqz	a4,1e6 <__ledf2+0x7c>
     226:	fcd58ee3          	beq	a1,a3,202 <__ledf2+0x98>
     22a:	bfbd                	j	1a8 <__ledf2+0x3e>
     22c:	db41                	beqz	a4,1bc <__ledf2+0x52>
     22e:	bfad                	j	1a8 <__ledf2+0x3e>
     230:	4509                	li	a0,2
     232:	b769                	j	1bc <__ledf2+0x52>

00000234 <__muldf3>:
     234:	fc410113          	addi	sp,sp,-60
     238:	00c59793          	slli	a5,a1,0xc
     23c:	d826                	sw	s1,48(sp)
     23e:	0145d313          	srli	t1,a1,0x14
     242:	00c7d493          	srli	s1,a5,0xc
     246:	01f5d793          	srli	a5,a1,0x1f
     24a:	da22                	sw	s0,52(sp)
     24c:	dc06                	sw	ra,56(sp)
     24e:	7ff37313          	andi	t1,t1,2047
     252:	c43e                	sw	a5,8(sp)
     254:	8436                	mv	s0,a3
     256:	2a030363          	beqz	t1,4fc <__muldf3+0x2c8>
     25a:	7ff00793          	li	a5,2047
     25e:	2ef30e63          	beq	t1,a5,55a <__muldf3+0x326>
     262:	00349693          	slli	a3,s1,0x3
     266:	01d55793          	srli	a5,a0,0x1d
     26a:	8fd5                	or	a5,a5,a3
     26c:	008006b7          	lui	a3,0x800
     270:	00d7e4b3          	or	s1,a5,a3
     274:	00351593          	slli	a1,a0,0x3
     278:	c0130313          	addi	t1,t1,-1023
     27c:	4281                	li	t0,0
     27e:	01445713          	srli	a4,s0,0x14
     282:	00c41793          	slli	a5,s0,0xc
     286:	7ff77713          	andi	a4,a4,2047
     28a:	83b1                	srli	a5,a5,0xc
     28c:	807d                	srli	s0,s0,0x1f
     28e:	2e070763          	beqz	a4,57c <__muldf3+0x348>
     292:	7ff00693          	li	a3,2047
     296:	34d70e63          	beq	a4,a3,5f2 <__muldf3+0x3be>
     29a:	01d65693          	srli	a3,a2,0x1d
     29e:	078e                	slli	a5,a5,0x3
     2a0:	8edd                	or	a3,a3,a5
     2a2:	008007b7          	lui	a5,0x800
     2a6:	8fd5                	or	a5,a5,a3
     2a8:	00361693          	slli	a3,a2,0x3
     2ac:	c0170613          	addi	a2,a4,-1023
     2b0:	4701                	li	a4,0
     2b2:	4522                	lw	a0,8(sp)
     2b4:	961a                	add	a2,a2,t1
     2b6:	d232                	sw	a2,36(sp)
     2b8:	0605                	addi	a2,a2,1
     2ba:	8d21                	xor	a0,a0,s0
     2bc:	c232                	sw	a2,4(sp)
     2be:	00229613          	slli	a2,t0,0x2
     2c2:	c02a                	sw	a0,0(sp)
     2c4:	8e59                	or	a2,a2,a4
     2c6:	4529                	li	a0,10
     2c8:	38c54163          	blt	a0,a2,64a <__muldf3+0x416>
     2cc:	4509                	li	a0,2
     2ce:	34c54363          	blt	a0,a2,614 <__muldf3+0x3e0>
     2d2:	167d                	addi	a2,a2,-1
     2d4:	4505                	li	a0,1
     2d6:	34c57e63          	bgeu	a0,a2,632 <__muldf3+0x3fe>
     2da:	0105d713          	srli	a4,a1,0x10
     2de:	c43a                	sw	a4,8(sp)
     2e0:	62c1                	lui	t0,0x10
     2e2:	0106d713          	srli	a4,a3,0x10
     2e6:	c63a                	sw	a4,12(sp)
     2e8:	fff28713          	addi	a4,t0,-1 # ffff <fix_fft.cpp.5eff4be4+0x71f7>
     2ec:	00e5f633          	and	a2,a1,a4
     2f0:	8ef9                	and	a3,a3,a4
     2f2:	ca32                	sw	a2,20(sp)
     2f4:	8532                	mv	a0,a2
     2f6:	cc36                	sw	a3,24(sp)
     2f8:	85b6                	mv	a1,a3
     2fa:	21dd                	jal	7e0 <__mulsi3>
     2fc:	83aa                	mv	t2,a0
     2fe:	45b2                	lw	a1,12(sp)
     300:	4552                	lw	a0,20(sp)
     302:	29f9                	jal	7e0 <__mulsi3>
     304:	832a                	mv	t1,a0
     306:	45e2                	lw	a1,24(sp)
     308:	4522                	lw	a0,8(sp)
     30a:	29d9                	jal	7e0 <__mulsi3>
     30c:	842a                	mv	s0,a0
     30e:	45b2                	lw	a1,12(sp)
     310:	4522                	lw	a0,8(sp)
     312:	21f9                	jal	7e0 <__mulsi3>
     314:	0103d693          	srli	a3,t2,0x10
     318:	9322                	add	t1,t1,s0
     31a:	d02a                	sw	a0,32(sp)
     31c:	9336                	add	t1,t1,a3
     31e:	00837563          	bgeu	t1,s0,328 <__muldf3+0xf4>
     322:	005506b3          	add	a3,a0,t0
     326:	d036                	sw	a3,32(sp)
     328:	01035293          	srli	t0,t1,0x10
     32c:	00e37333          	and	t1,t1,a4
     330:	0342                	slli	t1,t1,0x10
     332:	00e3f6b3          	and	a3,t2,a4
     336:	969a                	add	a3,a3,t1
     338:	d436                	sw	a3,40(sp)
     33a:	0107d693          	srli	a3,a5,0x10
     33e:	8ff9                	and	a5,a5,a4
     340:	4552                	lw	a0,20(sp)
     342:	c836                	sw	a3,16(sp)
     344:	ce3e                	sw	a5,28(sp)
     346:	85be                	mv	a1,a5
     348:	2961                	jal	7e0 <__mulsi3>
     34a:	872a                	mv	a4,a0
     34c:	45c2                	lw	a1,16(sp)
     34e:	4552                	lw	a0,20(sp)
     350:	2941                	jal	7e0 <__mulsi3>
     352:	87aa                	mv	a5,a0
     354:	45f2                	lw	a1,28(sp)
     356:	4522                	lw	a0,8(sp)
     358:	2161                	jal	7e0 <__mulsi3>
     35a:	832a                	mv	t1,a0
     35c:	45c2                	lw	a1,16(sp)
     35e:	4522                	lw	a0,8(sp)
     360:	2141                	jal	7e0 <__mulsi3>
     362:	01075693          	srli	a3,a4,0x10
     366:	979a                	add	a5,a5,t1
     368:	96be                	add	a3,a3,a5
     36a:	0066f463          	bgeu	a3,t1,372 <__muldf3+0x13e>
     36e:	67c1                	lui	a5,0x10
     370:	953e                	add	a0,a0,a5
     372:	0106d793          	srli	a5,a3,0x10
     376:	97aa                	add	a5,a5,a0
     378:	6341                	lui	t1,0x10
     37a:	d63e                	sw	a5,44(sp)
     37c:	fff30793          	addi	a5,t1,-1 # ffff <fix_fft.cpp.5eff4be4+0x71f7>
     380:	8efd                	and	a3,a3,a5
     382:	06c2                	slli	a3,a3,0x10
     384:	8f7d                	and	a4,a4,a5
     386:	9736                	add	a4,a4,a3
     388:	ca3a                	sw	a4,20(sp)
     38a:	92ba                	add	t0,t0,a4
     38c:	8fe5                	and	a5,a5,s1
     38e:	0104d713          	srli	a4,s1,0x10
     392:	45e2                	lw	a1,24(sp)
     394:	c43a                	sw	a4,8(sp)
     396:	853e                	mv	a0,a5
     398:	21a1                	jal	7e0 <__mulsi3>
     39a:	872a                	mv	a4,a0
     39c:	45b2                	lw	a1,12(sp)
     39e:	853e                	mv	a0,a5
     3a0:	2181                	jal	7e0 <__mulsi3>
     3a2:	83aa                	mv	t2,a0
     3a4:	45e2                	lw	a1,24(sp)
     3a6:	4522                	lw	a0,8(sp)
     3a8:	2925                	jal	7e0 <__mulsi3>
     3aa:	842a                	mv	s0,a0
     3ac:	45b2                	lw	a1,12(sp)
     3ae:	4522                	lw	a0,8(sp)
     3b0:	2905                	jal	7e0 <__mulsi3>
     3b2:	01075693          	srli	a3,a4,0x10
     3b6:	93a2                	add	t2,t2,s0
     3b8:	93b6                	add	t2,t2,a3
     3ba:	0083f363          	bgeu	t2,s0,3c0 <__muldf3+0x18c>
     3be:	951a                	add	a0,a0,t1
     3c0:	6441                	lui	s0,0x10
     3c2:	fff40313          	addi	t1,s0,-1 # ffff <fix_fft.cpp.5eff4be4+0x71f7>
     3c6:	0103d693          	srli	a3,t2,0x10
     3ca:	0063f3b3          	and	t2,t2,t1
     3ce:	03c2                	slli	t2,t2,0x10
     3d0:	00677733          	and	a4,a4,t1
     3d4:	971e                	add	a4,a4,t2
     3d6:	00a684b3          	add	s1,a3,a0
     3da:	45f2                	lw	a1,28(sp)
     3dc:	c63a                	sw	a4,12(sp)
     3de:	853e                	mv	a0,a5
     3e0:	2101                	jal	7e0 <__mulsi3>
     3e2:	872a                	mv	a4,a0
     3e4:	45c2                	lw	a1,16(sp)
     3e6:	853e                	mv	a0,a5
     3e8:	2ee5                	jal	7e0 <__mulsi3>
     3ea:	87aa                	mv	a5,a0
     3ec:	45f2                	lw	a1,28(sp)
     3ee:	4522                	lw	a0,8(sp)
     3f0:	2ec5                	jal	7e0 <__mulsi3>
     3f2:	83aa                	mv	t2,a0
     3f4:	45c2                	lw	a1,16(sp)
     3f6:	4522                	lw	a0,8(sp)
     3f8:	26e5                	jal	7e0 <__mulsi3>
     3fa:	01075693          	srli	a3,a4,0x10
     3fe:	979e                	add	a5,a5,t2
     400:	97b6                	add	a5,a5,a3
     402:	0077f363          	bgeu	a5,t2,408 <__muldf3+0x1d4>
     406:	9522                	add	a0,a0,s0
     408:	0067f633          	and	a2,a5,t1
     40c:	0642                	slli	a2,a2,0x10
     40e:	00677733          	and	a4,a4,t1
     412:	5682                	lw	a3,32(sp)
     414:	9732                	add	a4,a4,a2
     416:	45d2                	lw	a1,20(sp)
     418:	5632                	lw	a2,44(sp)
     41a:	9696                	add	a3,a3,t0
     41c:	00b6b5b3          	sltu	a1,a3,a1
     420:	963a                	add	a2,a2,a4
     422:	95b2                	add	a1,a1,a2
     424:	00e63733          	sltu	a4,a2,a4
     428:	00c5b633          	sltu	a2,a1,a2
     42c:	8e59                	or	a2,a2,a4
     42e:	83c1                	srli	a5,a5,0x10
     430:	963e                	add	a2,a2,a5
     432:	47b2                	lw	a5,12(sp)
     434:	009582b3          	add	t0,a1,s1
     438:	00f68733          	add	a4,a3,a5
     43c:	00d736b3          	sltu	a3,a4,a3
     440:	00d28333          	add	t1,t0,a3
     444:	00b2b7b3          	sltu	a5,t0,a1
     448:	005332b3          	sltu	t0,t1,t0
     44c:	0057e7b3          	or	a5,a5,t0
     450:	97b2                	add	a5,a5,a2
     452:	97aa                	add	a5,a5,a0
     454:	5622                	lw	a2,40(sp)
     456:	01735693          	srli	a3,t1,0x17
     45a:	07a6                	slli	a5,a5,0x9
     45c:	8fd5                	or	a5,a5,a3
     45e:	00971693          	slli	a3,a4,0x9
     462:	8ed1                	or	a3,a3,a2
     464:	835d                	srli	a4,a4,0x17
     466:	00d036b3          	snez	a3,a3
     46a:	8ed9                	or	a3,a3,a4
     46c:	01000737          	lui	a4,0x1000
     470:	0326                	slli	t1,t1,0x9
     472:	8f7d                	and	a4,a4,a5
     474:	0066e6b3          	or	a3,a3,t1
     478:	1e070563          	beqz	a4,662 <__muldf3+0x42e>
     47c:	0016d713          	srli	a4,a3,0x1
     480:	8a85                	andi	a3,a3,1
     482:	8f55                	or	a4,a4,a3
     484:	01f79693          	slli	a3,a5,0x1f
     488:	8ed9                	or	a3,a3,a4
     48a:	8385                	srli	a5,a5,0x1
     48c:	4712                	lw	a4,4(sp)
     48e:	3ff70513          	addi	a0,a4,1023 # 10003ff <fix_fft.cpp.5eff4be4+0xff75f7>
     492:	1ca05b63          	blez	a0,668 <__muldf3+0x434>
     496:	0076f713          	andi	a4,a3,7
     49a:	cf01                	beqz	a4,4b2 <__muldf3+0x27e>
     49c:	00f6f713          	andi	a4,a3,15
     4a0:	4611                	li	a2,4
     4a2:	00c70863          	beq	a4,a2,4b2 <__muldf3+0x27e>
     4a6:	00468713          	addi	a4,a3,4 # 800004 <fix_fft.cpp.5eff4be4+0x7f71fc>
     4aa:	00d73633          	sltu	a2,a4,a3
     4ae:	97b2                	add	a5,a5,a2
     4b0:	86ba                	mv	a3,a4
     4b2:	01000737          	lui	a4,0x1000
     4b6:	8f7d                	and	a4,a4,a5
     4b8:	cb01                	beqz	a4,4c8 <__muldf3+0x294>
     4ba:	ff000737          	lui	a4,0xff000
     4be:	177d                	addi	a4,a4,-1 # feffffff <_eusrstack+0xdefff7ff>
     4c0:	8ff9                	and	a5,a5,a4
     4c2:	4712                	lw	a4,4(sp)
     4c4:	40070513          	addi	a0,a4,1024
     4c8:	7fe00713          	li	a4,2046
     4cc:	22a74e63          	blt	a4,a0,708 <__muldf3+0x4d4>
     4d0:	01d79613          	slli	a2,a5,0x1d
     4d4:	828d                	srli	a3,a3,0x3
     4d6:	8e55                	or	a2,a2,a3
     4d8:	838d                	srli	a5,a5,0x3
     4da:	07b2                	slli	a5,a5,0xc
     4dc:	01451713          	slli	a4,a0,0x14
     4e0:	83b1                	srli	a5,a5,0xc
     4e2:	8fd9                	or	a5,a5,a4
     4e4:	4702                	lw	a4,0(sp)
     4e6:	50e2                	lw	ra,56(sp)
     4e8:	5452                	lw	s0,52(sp)
     4ea:	077e                	slli	a4,a4,0x1f
     4ec:	00e7e6b3          	or	a3,a5,a4
     4f0:	54c2                	lw	s1,48(sp)
     4f2:	8532                	mv	a0,a2
     4f4:	85b6                	mv	a1,a3
     4f6:	03c10113          	addi	sp,sp,60
     4fa:	8082                	ret
     4fc:	00a4e5b3          	or	a1,s1,a0
     500:	c5ad                	beqz	a1,56a <__muldf3+0x336>
     502:	c232                	sw	a2,4(sp)
     504:	c89d                	beqz	s1,53a <__muldf3+0x306>
     506:	c02a                	sw	a0,0(sp)
     508:	8526                	mv	a0,s1
     50a:	26b5                	jal	876 <__clzsi2>
     50c:	4702                	lw	a4,0(sp)
     50e:	4612                	lw	a2,4(sp)
     510:	ff550593          	addi	a1,a0,-11
     514:	47f5                	li	a5,29
     516:	ff850693          	addi	a3,a0,-8
     51a:	8f8d                	sub	a5,a5,a1
     51c:	00d49333          	sll	t1,s1,a3
     520:	00f757b3          	srl	a5,a4,a5
     524:	0067e7b3          	or	a5,a5,t1
     528:	00d714b3          	sll	s1,a4,a3
     52c:	c0d00313          	li	t1,-1011
     530:	85a6                	mv	a1,s1
     532:	40a30333          	sub	t1,t1,a0
     536:	84be                	mv	s1,a5
     538:	b391                	j	27c <__muldf3+0x48>
     53a:	c02a                	sw	a0,0(sp)
     53c:	2e2d                	jal	876 <__clzsi2>
     53e:	87aa                	mv	a5,a0
     540:	01578593          	addi	a1,a5,21 # 10015 <fix_fft.cpp.5eff4be4+0x720d>
     544:	46f1                	li	a3,28
     546:	4702                	lw	a4,0(sp)
     548:	4612                	lw	a2,4(sp)
     54a:	02050513          	addi	a0,a0,32
     54e:	fcb6d3e3          	bge	a3,a1,514 <__muldf3+0x2e0>
     552:	17e1                	addi	a5,a5,-8
     554:	00f717b3          	sll	a5,a4,a5
     558:	bfd1                	j	52c <__muldf3+0x2f8>
     55a:	00a4e5b3          	or	a1,s1,a0
     55e:	c991                	beqz	a1,572 <__muldf3+0x33e>
     560:	85aa                	mv	a1,a0
     562:	7ff00313          	li	t1,2047
     566:	428d                	li	t0,3
     568:	bb19                	j	27e <__muldf3+0x4a>
     56a:	4481                	li	s1,0
     56c:	4301                	li	t1,0
     56e:	4285                	li	t0,1
     570:	b339                	j	27e <__muldf3+0x4a>
     572:	4481                	li	s1,0
     574:	7ff00313          	li	t1,2047
     578:	4289                	li	t0,2
     57a:	b311                	j	27e <__muldf3+0x4a>
     57c:	00c7e6b3          	or	a3,a5,a2
     580:	c2c9                	beqz	a3,602 <__muldf3+0x3ce>
     582:	c3a1                	beqz	a5,5c2 <__muldf3+0x38e>
     584:	853e                	mv	a0,a5
     586:	ca32                	sw	a2,20(sp)
     588:	c82e                	sw	a1,16(sp)
     58a:	c61a                	sw	t1,12(sp)
     58c:	c216                	sw	t0,4(sp)
     58e:	c03e                	sw	a5,0(sp)
     590:	24dd                	jal	876 <__clzsi2>
     592:	4782                	lw	a5,0(sp)
     594:	4292                	lw	t0,4(sp)
     596:	4332                	lw	t1,12(sp)
     598:	45c2                	lw	a1,16(sp)
     59a:	4652                	lw	a2,20(sp)
     59c:	ff550693          	addi	a3,a0,-11
     5a0:	4775                	li	a4,29
     5a2:	ff850393          	addi	t2,a0,-8
     5a6:	8f15                	sub	a4,a4,a3
     5a8:	007797b3          	sll	a5,a5,t2
     5ac:	00e65733          	srl	a4,a2,a4
     5b0:	8f5d                	or	a4,a4,a5
     5b2:	007617b3          	sll	a5,a2,t2
     5b6:	c0d00613          	li	a2,-1011
     5ba:	86be                	mv	a3,a5
     5bc:	8e09                	sub	a2,a2,a0
     5be:	87ba                	mv	a5,a4
     5c0:	b9c5                	j	2b0 <__muldf3+0x7c>
     5c2:	8532                	mv	a0,a2
     5c4:	ca3e                	sw	a5,20(sp)
     5c6:	c82e                	sw	a1,16(sp)
     5c8:	c61a                	sw	t1,12(sp)
     5ca:	c216                	sw	t0,4(sp)
     5cc:	c032                	sw	a2,0(sp)
     5ce:	2465                	jal	876 <__clzsi2>
     5d0:	872a                	mv	a4,a0
     5d2:	01570693          	addi	a3,a4,21
     5d6:	43f1                	li	t2,28
     5d8:	4602                	lw	a2,0(sp)
     5da:	4292                	lw	t0,4(sp)
     5dc:	4332                	lw	t1,12(sp)
     5de:	45c2                	lw	a1,16(sp)
     5e0:	47d2                	lw	a5,20(sp)
     5e2:	02050513          	addi	a0,a0,32
     5e6:	fad3dde3          	bge	t2,a3,5a0 <__muldf3+0x36c>
     5ea:	1761                	addi	a4,a4,-8
     5ec:	00e61733          	sll	a4,a2,a4
     5f0:	b7d9                	j	5b6 <__muldf3+0x382>
     5f2:	00c7e6b3          	or	a3,a5,a2
     5f6:	ca91                	beqz	a3,60a <__muldf3+0x3d6>
     5f8:	86b2                	mv	a3,a2
     5fa:	470d                	li	a4,3
     5fc:	7ff00613          	li	a2,2047
     600:	b94d                	j	2b2 <__muldf3+0x7e>
     602:	4781                	li	a5,0
     604:	4601                	li	a2,0
     606:	4705                	li	a4,1
     608:	b16d                	j	2b2 <__muldf3+0x7e>
     60a:	4781                	li	a5,0
     60c:	7ff00613          	li	a2,2047
     610:	4709                	li	a4,2
     612:	b145                	j	2b2 <__muldf3+0x7e>
     614:	4505                	li	a0,1
     616:	00c51533          	sll	a0,a0,a2
     61a:	53057613          	andi	a2,a0,1328
     61e:	ee15                	bnez	a2,65a <__muldf3+0x426>
     620:	24057313          	andi	t1,a0,576
     624:	0c031863          	bnez	t1,6f4 <__muldf3+0x4c0>
     628:	08857513          	andi	a0,a0,136
     62c:	ca0507e3          	beqz	a0,2da <__muldf3+0xa6>
     630:	c022                	sw	s0,0(sp)
     632:	4609                	li	a2,2
     634:	0cc70a63          	beq	a4,a2,708 <__muldf3+0x4d4>
     638:	460d                	li	a2,3
     63a:	0cc70363          	beq	a4,a2,700 <__muldf3+0x4cc>
     63e:	4605                	li	a2,1
     640:	e4c716e3          	bne	a4,a2,48c <__muldf3+0x258>
     644:	4781                	li	a5,0
     646:	4601                	li	a2,0
     648:	a041                	j	6c8 <__muldf3+0x494>
     64a:	453d                	li	a0,15
     64c:	0aa60a63          	beq	a2,a0,700 <__muldf3+0x4cc>
     650:	452d                	li	a0,11
     652:	fca60fe3          	beq	a2,a0,630 <__muldf3+0x3fc>
     656:	47a2                	lw	a5,8(sp)
     658:	c03e                	sw	a5,0(sp)
     65a:	87a6                	mv	a5,s1
     65c:	86ae                	mv	a3,a1
     65e:	8716                	mv	a4,t0
     660:	bfc9                	j	632 <__muldf3+0x3fe>
     662:	5712                	lw	a4,36(sp)
     664:	c23a                	sw	a4,4(sp)
     666:	b51d                	j	48c <__muldf3+0x258>
     668:	4585                	li	a1,1
     66a:	c909                	beqz	a0,67c <__muldf3+0x448>
     66c:	8d89                	sub	a1,a1,a0
     66e:	03800713          	li	a4,56
     672:	fcb749e3          	blt	a4,a1,644 <__muldf3+0x410>
     676:	477d                	li	a4,31
     678:	04b74a63          	blt	a4,a1,6cc <__muldf3+0x498>
     67c:	4712                	lw	a4,4(sp)
     67e:	00b6d533          	srl	a0,a3,a1
     682:	41e70613          	addi	a2,a4,1054
     686:	00c69733          	sll	a4,a3,a2
     68a:	00e03733          	snez	a4,a4
     68e:	00c79633          	sll	a2,a5,a2
     692:	8f51                	or	a4,a4,a2
     694:	8f49                	or	a4,a4,a0
     696:	00b7d7b3          	srl	a5,a5,a1
     69a:	00777693          	andi	a3,a4,7
     69e:	ce81                	beqz	a3,6b6 <__muldf3+0x482>
     6a0:	00f77693          	andi	a3,a4,15
     6a4:	4611                	li	a2,4
     6a6:	00c68863          	beq	a3,a2,6b6 <__muldf3+0x482>
     6aa:	00470693          	addi	a3,a4,4
     6ae:	00e6b633          	sltu	a2,a3,a4
     6b2:	97b2                	add	a5,a5,a2
     6b4:	8736                	mv	a4,a3
     6b6:	008006b7          	lui	a3,0x800
     6ba:	8efd                	and	a3,a3,a5
     6bc:	eab9                	bnez	a3,712 <__muldf3+0x4de>
     6be:	01d79613          	slli	a2,a5,0x1d
     6c2:	830d                	srli	a4,a4,0x3
     6c4:	8e59                	or	a2,a2,a4
     6c6:	838d                	srli	a5,a5,0x3
     6c8:	4501                	li	a0,0
     6ca:	bd01                	j	4da <__muldf3+0x2a6>
     6cc:	5705                	li	a4,-31
     6ce:	8f09                	sub	a4,a4,a0
     6d0:	02000513          	li	a0,32
     6d4:	00e7d733          	srl	a4,a5,a4
     6d8:	4601                	li	a2,0
     6da:	00a58763          	beq	a1,a0,6e8 <__muldf3+0x4b4>
     6de:	4612                	lw	a2,4(sp)
     6e0:	43e60613          	addi	a2,a2,1086
     6e4:	00c79633          	sll	a2,a5,a2
     6e8:	8e55                	or	a2,a2,a3
     6ea:	00c03633          	snez	a2,a2
     6ee:	8f51                	or	a4,a4,a2
     6f0:	4781                	li	a5,0
     6f2:	b765                	j	69a <__muldf3+0x466>
     6f4:	000807b7          	lui	a5,0x80
     6f8:	7ff00513          	li	a0,2047
     6fc:	c002                	sw	zero,0(sp)
     6fe:	bbf1                	j	4da <__muldf3+0x2a6>
     700:	000807b7          	lui	a5,0x80
     704:	4601                	li	a2,0
     706:	bfcd                	j	6f8 <__muldf3+0x4c4>
     708:	4781                	li	a5,0
     70a:	4601                	li	a2,0
     70c:	7ff00513          	li	a0,2047
     710:	b3e9                	j	4da <__muldf3+0x2a6>
     712:	4781                	li	a5,0
     714:	4601                	li	a2,0
     716:	4505                	li	a0,1
     718:	b3c9                	j	4da <__muldf3+0x2a6>

0000071a <__floatsidf>:
     71a:	1151                	addi	sp,sp,-12
     71c:	c406                	sw	ra,8(sp)
     71e:	c222                	sw	s0,4(sp)
     720:	c026                	sw	s1,0(sp)
     722:	cd21                	beqz	a0,77a <__floatsidf+0x60>
     724:	41f55793          	srai	a5,a0,0x1f
     728:	00a7c433          	xor	s0,a5,a0
     72c:	8c1d                	sub	s0,s0,a5
     72e:	01f55493          	srli	s1,a0,0x1f
     732:	8522                	mv	a0,s0
     734:	2289                	jal	876 <__clzsi2>
     736:	41e00693          	li	a3,1054
     73a:	47a9                	li	a5,10
     73c:	8e89                	sub	a3,a3,a0
     73e:	02a7c863          	blt	a5,a0,76e <__floatsidf+0x54>
     742:	47ad                	li	a5,11
     744:	8f89                	sub	a5,a5,a0
     746:	0555                	addi	a0,a0,21
     748:	00a41733          	sll	a4,s0,a0
     74c:	00f457b3          	srl	a5,s0,a5
     750:	8526                	mv	a0,s1
     752:	07b2                	slli	a5,a5,0xc
     754:	40a2                	lw	ra,8(sp)
     756:	4412                	lw	s0,4(sp)
     758:	83b1                	srli	a5,a5,0xc
     75a:	06d2                	slli	a3,a3,0x14
     75c:	057e                	slli	a0,a0,0x1f
     75e:	8edd                	or	a3,a3,a5
     760:	00a6e7b3          	or	a5,a3,a0
     764:	4482                	lw	s1,0(sp)
     766:	853a                	mv	a0,a4
     768:	85be                	mv	a1,a5
     76a:	0131                	addi	sp,sp,12
     76c:	8082                	ret
     76e:	1555                	addi	a0,a0,-11
     770:	00a417b3          	sll	a5,s0,a0
     774:	8526                	mv	a0,s1
     776:	4701                	li	a4,0
     778:	bfe9                	j	752 <__floatsidf+0x38>
     77a:	4681                	li	a3,0
     77c:	4781                	li	a5,0
     77e:	bfe5                	j	776 <__floatsidf+0x5c>

00000780 <__floatunsidf>:
     780:	1151                	addi	sp,sp,-12
     782:	c222                	sw	s0,4(sp)
     784:	c406                	sw	ra,8(sp)
     786:	842a                	mv	s0,a0
     788:	cd1d                	beqz	a0,7c6 <__floatunsidf+0x46>
     78a:	20f5                	jal	876 <__clzsi2>
     78c:	41e00713          	li	a4,1054
     790:	47a9                	li	a5,10
     792:	8f09                	sub	a4,a4,a0
     794:	02a7c463          	blt	a5,a0,7bc <__floatunsidf+0x3c>
     798:	47ad                	li	a5,11
     79a:	8f89                	sub	a5,a5,a0
     79c:	0555                	addi	a0,a0,21
     79e:	00f457b3          	srl	a5,s0,a5
     7a2:	00a41433          	sll	s0,s0,a0
     7a6:	40a2                	lw	ra,8(sp)
     7a8:	8522                	mv	a0,s0
     7aa:	07b2                	slli	a5,a5,0xc
     7ac:	4412                	lw	s0,4(sp)
     7ae:	0752                	slli	a4,a4,0x14
     7b0:	83b1                	srli	a5,a5,0xc
     7b2:	00f766b3          	or	a3,a4,a5
     7b6:	85b6                	mv	a1,a3
     7b8:	0131                	addi	sp,sp,12
     7ba:	8082                	ret
     7bc:	1555                	addi	a0,a0,-11
     7be:	00a417b3          	sll	a5,s0,a0
     7c2:	4401                	li	s0,0
     7c4:	b7cd                	j	7a6 <__floatunsidf+0x26>
     7c6:	4781                	li	a5,0
     7c8:	4701                	li	a4,0
     7ca:	bff1                	j	7a6 <__floatunsidf+0x26>

000007cc <__riscv_save_0>:
     7cc:	1151                	addi	sp,sp,-12
     7ce:	c026                	sw	s1,0(sp)
     7d0:	c222                	sw	s0,4(sp)
     7d2:	c406                	sw	ra,8(sp)
     7d4:	8282                	jr	t0

000007d6 <__riscv_restore_0>:
     7d6:	4482                	lw	s1,0(sp)
     7d8:	4412                	lw	s0,4(sp)
     7da:	40a2                	lw	ra,8(sp)
     7dc:	0131                	addi	sp,sp,12
     7de:	8082                	ret

000007e0 <__mulsi3>:
     7e0:	862a                	mv	a2,a0
     7e2:	4501                	li	a0,0
     7e4:	0015f693          	andi	a3,a1,1
     7e8:	c291                	beqz	a3,7ec <__mulsi3+0xc>
     7ea:	9532                	add	a0,a0,a2
     7ec:	8185                	srli	a1,a1,0x1
     7ee:	0606                	slli	a2,a2,0x1
     7f0:	f9f5                	bnez	a1,7e4 <__mulsi3+0x4>
     7f2:	8082                	ret
     7f4:	0000                	unimp
	...

000007f8 <__divsi3>:
     7f8:	02054e63          	bltz	a0,834 <__umodsi3+0x8>
     7fc:	0405c363          	bltz	a1,842 <__umodsi3+0x16>

00000800 <__hidden___udivsi3>:
     800:	862e                	mv	a2,a1
     802:	85aa                	mv	a1,a0
     804:	557d                	li	a0,-1
     806:	c215                	beqz	a2,82a <__hidden___udivsi3+0x2a>
     808:	4685                	li	a3,1
     80a:	00b67863          	bgeu	a2,a1,81a <__hidden___udivsi3+0x1a>
     80e:	00c05663          	blez	a2,81a <__hidden___udivsi3+0x1a>
     812:	0606                	slli	a2,a2,0x1
     814:	0686                	slli	a3,a3,0x1
     816:	feb66ce3          	bltu	a2,a1,80e <__hidden___udivsi3+0xe>
     81a:	4501                	li	a0,0
     81c:	00c5e463          	bltu	a1,a2,824 <__hidden___udivsi3+0x24>
     820:	8d91                	sub	a1,a1,a2
     822:	8d55                	or	a0,a0,a3
     824:	8285                	srli	a3,a3,0x1
     826:	8205                	srli	a2,a2,0x1
     828:	faf5                	bnez	a3,81c <__hidden___udivsi3+0x1c>
     82a:	8082                	ret

0000082c <__umodsi3>:
     82c:	8286                	mv	t0,ra
     82e:	3fc9                	jal	800 <__hidden___udivsi3>
     830:	852e                	mv	a0,a1
     832:	8282                	jr	t0
     834:	40a00533          	neg	a0,a0
     838:	00b04763          	bgtz	a1,846 <__umodsi3+0x1a>
     83c:	40b005b3          	neg	a1,a1
     840:	b7c1                	j	800 <__hidden___udivsi3>
     842:	40b005b3          	neg	a1,a1
     846:	8286                	mv	t0,ra
     848:	3f65                	jal	800 <__hidden___udivsi3>
     84a:	40a00533          	neg	a0,a0
     84e:	8282                	jr	t0

00000850 <__modsi3>:
     850:	8286                	mv	t0,ra
     852:	0005c763          	bltz	a1,860 <__modsi3+0x10>
     856:	00054963          	bltz	a0,868 <__modsi3+0x18>
     85a:	375d                	jal	800 <__hidden___udivsi3>
     85c:	852e                	mv	a0,a1
     85e:	8282                	jr	t0
     860:	40b005b3          	neg	a1,a1
     864:	fe055be3          	bgez	a0,85a <__modsi3+0xa>
     868:	40a00533          	neg	a0,a0
     86c:	3f51                	jal	800 <__hidden___udivsi3>
     86e:	40b00533          	neg	a0,a1
     872:	8282                	jr	t0
	...

00000876 <__clzsi2>:
     876:	67c1                	lui	a5,0x10
     878:	02f57563          	bgeu	a0,a5,8a2 <__clzsi2+0x2c>
     87c:	10053793          	sltiu	a5,a0,256
     880:	0017c793          	xori	a5,a5,1
     884:	078e                	slli	a5,a5,0x3
     886:	670d                	lui	a4,0x3
     888:	02000693          	li	a3,32
     88c:	8e9d                	sub	a3,a3,a5
     88e:	00f55533          	srl	a0,a0,a5
     892:	c7c70793          	addi	a5,a4,-900 # 2c7c <__clz_tab>
     896:	97aa                	add	a5,a5,a0
     898:	0007c503          	lbu	a0,0(a5) # 10000 <fix_fft.cpp.5eff4be4+0x71f8>
     89c:	40a68533          	sub	a0,a3,a0
     8a0:	8082                	ret
     8a2:	01000737          	lui	a4,0x1000
     8a6:	47c1                	li	a5,16
     8a8:	fce56fe3          	bltu	a0,a4,886 <__clzsi2+0x10>
     8ac:	47e1                	li	a5,24
     8ae:	bfe1                	j	886 <__clzsi2+0x10>

000008b0 <mini_pad>:
     8b0:	f1dff2ef          	jal	t0,7cc <__riscv_save_0>
     8b4:	84ae                	mv	s1,a1
     8b6:	1161                	addi	sp,sp,-8
     8b8:	87aa                	mv	a5,a0
     8ba:	85b2                	mv	a1,a2
     8bc:	4301                	li	t1,0
     8be:	c6bd                	beqz	a3,92c <mini_pad+0x7c>
     8c0:	0096d463          	bge	a3,s1,8c8 <mini_pad+0x18>
     8c4:	84b6                	mv	s1,a3
     8c6:	4305                	li	t1,1
     8c8:	40968433          	sub	s0,a3,s1
     8cc:	00045363          	bgez	s0,8d2 <mini_pad+0x22>
     8d0:	4401                	li	s0,0
     8d2:	8622                	mv	a2,s0
     8d4:	853a                	mv	a0,a4
     8d6:	c23e                	sw	a5,4(sp)
     8d8:	c01a                	sw	t1,0(sp)
     8da:	343000ef          	jal	ra,141c <memset>
     8de:	4302                	lw	t1,0(sp)
     8e0:	4792                	lw	a5,4(sp)
     8e2:	872a                	mv	a4,a0
     8e4:	008506b3          	add	a3,a0,s0
     8e8:	4601                	li	a2,0
     8ea:	40c485b3          	sub	a1,s1,a2
     8ee:	04b04163          	bgtz	a1,930 <mini_pad+0x80>
     8f2:	0004d363          	bgez	s1,8f8 <mini_pad+0x48>
     8f6:	4481                	li	s1,0
     8f8:	009685b3          	add	a1,a3,s1
     8fc:	40e58533          	sub	a0,a1,a4
     900:	02030463          	beqz	t1,928 <mini_pad+0x78>
     904:	02b77263          	bgeu	a4,a1,928 <mini_pad+0x78>
     908:	02a00793          	li	a5,42
     90c:	fef58fa3          	sb	a5,-1(a1)
     910:	fff58693          	addi	a3,a1,-1
     914:	00d77a63          	bgeu	a4,a3,928 <mini_pad+0x78>
     918:	fef58f23          	sb	a5,-2(a1)
     91c:	ffe58693          	addi	a3,a1,-2
     920:	00d77463          	bgeu	a4,a3,928 <mini_pad+0x78>
     924:	fef58ea3          	sb	a5,-3(a1)
     928:	0121                	addi	sp,sp,8
     92a:	b575                	j	7d6 <__riscv_restore_0>
     92c:	86a6                	mv	a3,s1
     92e:	bf69                	j	8c8 <mini_pad+0x18>
     930:	00c785b3          	add	a1,a5,a2
     934:	00058503          	lb	a0,0(a1)
     938:	00c685b3          	add	a1,a3,a2
     93c:	0605                	addi	a2,a2,1
     93e:	a188                	sb	a0,0(a1)
     940:	b76d                	j	8ea <mini_pad+0x3a>

00000942 <_puts>:
     942:	832a                	mv	t1,a0
     944:	852e                	mv	a0,a1
     946:	ce01                	beqz	a2,95e <_puts+0x1c>
     948:	00062283          	lw	t0,0(a2)
     94c:	4701                	li	a4,0
     94e:	425c                	lw	a5,4(a2)
     950:	00a74863          	blt	a4,a0,960 <_puts+0x1e>
     954:	00078023          	sb	zero,0(a5)
     958:	4248                	lw	a0,4(a2)
     95a:	40550533          	sub	a0,a0,t0
     95e:	8082                	ret
     960:	460c                	lw	a1,8(a2)
     962:	4214                	lw	a3,0(a2)
     964:	15fd                	addi	a1,a1,-1
     966:	96ae                	add	a3,a3,a1
     968:	fed786e3          	beq	a5,a3,954 <_puts+0x12>
     96c:	00178693          	addi	a3,a5,1
     970:	c254                	sw	a3,4(a2)
     972:	00e306b3          	add	a3,t1,a4
     976:	00068683          	lb	a3,0(a3) # 800000 <fix_fft.cpp.5eff4be4+0x7f71f8>
     97a:	0705                	addi	a4,a4,1 # 1000001 <fix_fft.cpp.5eff4be4+0xff71f9>
     97c:	a394                	sb	a3,0(a5)
     97e:	bfc1                	j	94e <_puts+0xc>

00000980 <DelaySysTick>:
     980:	e000f7b7          	lui	a5,0xe000f
     984:	479c                	lw	a5,8(a5)
     986:	e000f737          	lui	a4,0xe000f
     98a:	953e                	add	a0,a0,a5
     98c:	471c                	lw	a5,8(a4)
     98e:	8f89                	sub	a5,a5,a0
     990:	fe07cee3          	bltz	a5,98c <DelaySysTick+0xc>
     994:	8082                	ret

00000996 <mini_itoa.part.0>:
     996:	e37ff2ef          	jal	t0,7cc <__riscv_save_0>
     99a:	1131                	addi	sp,sp,-20
     99c:	c002                	sw	zero,0(sp)
     99e:	832a                	mv	t1,a0
     9a0:	00055763          	bgez	a0,9ae <mini_itoa.part.0+0x18>
     9a4:	e689                	bnez	a3,9ae <mini_itoa.part.0+0x18>
     9a6:	4785                	li	a5,1
     9a8:	40a00333          	neg	t1,a0
     9ac:	c03e                	sw	a5,0(sp)
     9ae:	06100413          	li	s0,97
     9b2:	c219                	beqz	a2,9b8 <mini_itoa.part.0+0x22>
     9b4:	04100413          	li	s0,65
     9b8:	84ba                	mv	s1,a4
     9ba:	1459                	addi	s0,s0,-10
     9bc:	851a                	mv	a0,t1
     9be:	c83a                	sw	a4,16(sp)
     9c0:	c21a                	sw	t1,4(sp)
     9c2:	c62e                	sw	a1,12(sp)
     9c4:	c41a                	sw	t1,8(sp)
     9c6:	359d                	jal	82c <__umodsi3>
     9c8:	47a5                	li	a5,9
     9ca:	4322                	lw	t1,8(sp)
     9cc:	45b2                	lw	a1,12(sp)
     9ce:	4742                	lw	a4,16(sp)
     9d0:	0ff57693          	zext.b	a3,a0
     9d4:	04a7ec63          	bltu	a5,a0,a2c <mini_itoa.part.0+0x96>
     9d8:	03068693          	addi	a3,a3,48
     9dc:	06e2                	slli	a3,a3,0x18
     9de:	86e1                	srai	a3,a3,0x18
     9e0:	00148793          	addi	a5,s1,1
     9e4:	a094                	sb	a3,0(s1)
     9e6:	851a                	mv	a0,t1
     9e8:	c83a                	sw	a4,16(sp)
     9ea:	c63e                	sw	a5,12(sp)
     9ec:	c42e                	sw	a1,8(sp)
     9ee:	3d09                	jal	800 <__hidden___udivsi3>
     9f0:	4692                	lw	a3,4(sp)
     9f2:	45a2                	lw	a1,8(sp)
     9f4:	47b2                	lw	a5,12(sp)
     9f6:	4742                	lw	a4,16(sp)
     9f8:	832a                	mv	t1,a0
     9fa:	02b6f763          	bgeu	a3,a1,a28 <mini_itoa.part.0+0x92>
     9fe:	4682                	lw	a3,0(sp)
     a00:	c691                	beqz	a3,a0c <mini_itoa.part.0+0x76>
     a02:	02d00693          	li	a3,45
     a06:	a394                	sb	a3,0(a5)
     a08:	00248793          	addi	a5,s1,2
     a0c:	40e78533          	sub	a0,a5,a4
     a10:	01f55693          	srli	a3,a0,0x1f
     a14:	96aa                	add	a3,a3,a0
     a16:	00078023          	sb	zero,0(a5) # e000f000 <_eusrstack+0xc000e800>
     a1a:	8685                	srai	a3,a3,0x1
     a1c:	4601                	li	a2,0
     a1e:	17fd                	addi	a5,a5,-1
     a20:	00d64863          	blt	a2,a3,a30 <mini_itoa.part.0+0x9a>
     a24:	0151                	addi	sp,sp,20
     a26:	bb45                	j	7d6 <__riscv_restore_0>
     a28:	84be                	mv	s1,a5
     a2a:	bf49                	j	9bc <mini_itoa.part.0+0x26>
     a2c:	96a2                	add	a3,a3,s0
     a2e:	b77d                	j	9dc <mini_itoa.part.0+0x46>
     a30:	00c705b3          	add	a1,a4,a2
     a34:	00078283          	lb	t0,0(a5)
     a38:	00058303          	lb	t1,0(a1)
     a3c:	0605                	addi	a2,a2,1
     a3e:	00558023          	sb	t0,0(a1)
     a42:	00678023          	sb	t1,0(a5)
     a46:	bfe1                	j	a1e <mini_itoa.part.0+0x88>

00000a48 <_Z11check_inputv>:
     a48:	400117b7          	lui	a5,0x40011
     a4c:	80078713          	addi	a4,a5,-2048 # 40010800 <_eusrstack+0x20010000>
     a50:	4718                	lw	a4,8(a4)
     a52:	4505                	li	a0,1
     a54:	8b09                	andi	a4,a4,2
     a56:	cf09                	beqz	a4,a70 <_Z11check_inputv+0x28>
     a58:	40078713          	addi	a4,a5,1024
     a5c:	4718                	lw	a4,8(a4)
     a5e:	450d                	li	a0,3
     a60:	8b11                	andi	a4,a4,4
     a62:	c719                	beqz	a4,a70 <_Z11check_inputv+0x28>
     a64:	4788                	lw	a0,8(a5)
     a66:	8111                	srli	a0,a0,0x4
     a68:	00154513          	xori	a0,a0,1
     a6c:	8905                	andi	a0,a0,1
     a6e:	0506                	slli	a0,a0,0x1
     a70:	8082                	ret

00000a72 <_Z8setSpeeds>:
     a72:	0b900793          	li	a5,185
     a76:	c901                	beqz	a0,a86 <_Z8setSpeeds+0x14>
     a78:	4709                	li	a4,2
     a7a:	06400793          	li	a5,100
     a7e:	00e50463          	beq	a0,a4,a86 <_Z8setSpeeds+0x14>
     a82:	09a00793          	li	a5,154
     a86:	e6f19823          	sh	a5,-400(gp) # 2000026c <_ZL8coeff100>
     a8a:	8082                	ret

00000a8c <_ZL8SPI_sendh>:
     a8c:	400137b7          	lui	a5,0x40013
     a90:	a7ca                	sh	a0,12(a5)
     a92:	40013737          	lui	a4,0x40013
     a96:	271e                	lhu	a5,8(a4)
     a98:	8b89                	andi	a5,a5,2
     a9a:	dff5                	beqz	a5,a96 <_ZL8SPI_sendh+0xa>
     a9c:	8082                	ret

00000a9e <_ZL15write_command_8h>:
     a9e:	400117b7          	lui	a5,0x40011
     aa2:	40078793          	addi	a5,a5,1024 # 40011400 <_eusrstack+0x20010c00>
     aa6:	4bd8                	lw	a4,20(a5)
     aa8:	00176713          	ori	a4,a4,1
     aac:	cbd8                	sw	a4,20(a5)
     aae:	bff9                	j	a8c <_ZL8SPI_sendh>

00000ab0 <_ZL13write_data_16t>:
     ab0:	d1dff2ef          	jal	t0,7cc <__riscv_save_0>
     ab4:	400117b7          	lui	a5,0x40011
     ab8:	40078793          	addi	a5,a5,1024 # 40011400 <_eusrstack+0x20010c00>
     abc:	4b98                	lw	a4,16(a5)
     abe:	842a                	mv	s0,a0
     ac0:	8121                	srli	a0,a0,0x8
     ac2:	00176713          	ori	a4,a4,1
     ac6:	cb98                	sw	a4,16(a5)
     ac8:	37d1                	jal	a8c <_ZL8SPI_sendh>
     aca:	0ff47513          	zext.b	a0,s0
     ace:	3f7d                	jal	a8c <_ZL8SPI_sendh>
     ad0:	b319                	j	7d6 <__riscv_restore_0>

00000ad2 <_ZL14tft_set_windowtttt>:
     ad2:	cfbff2ef          	jal	t0,7cc <__riscv_save_0>
     ad6:	1161                	addi	sp,sp,-8
     ad8:	84aa                	mv	s1,a0
     ada:	02a00513          	li	a0,42
     ade:	8432                	mv	s0,a2
     ae0:	c02e                	sw	a1,0(sp)
     ae2:	c236                	sw	a3,4(sp)
     ae4:	3f6d                	jal	a9e <_ZL15write_command_8h>
     ae6:	8526                	mv	a0,s1
     ae8:	37e1                	jal	ab0 <_ZL13write_data_16t>
     aea:	8522                	mv	a0,s0
     aec:	37d1                	jal	ab0 <_ZL13write_data_16t>
     aee:	02b00513          	li	a0,43
     af2:	3775                	jal	a9e <_ZL15write_command_8h>
     af4:	4502                	lw	a0,0(sp)
     af6:	3f6d                	jal	ab0 <_ZL13write_data_16t>
     af8:	4512                	lw	a0,4(sp)
     afa:	3f5d                	jal	ab0 <_ZL13write_data_16t>
     afc:	02c00513          	li	a0,44
     b00:	3f79                	jal	a9e <_ZL15write_command_8h>
     b02:	0121                	addi	sp,sp,8
     b04:	b9c9                	j	7d6 <__riscv_restore_0>

00000b06 <_Z14tft_draw_pixelttt>:
     b06:	cc7ff2ef          	jal	t0,7cc <__riscv_save_0>
     b0a:	400114b7          	lui	s1,0x40011
     b0e:	48dc                	lw	a5,20(s1)
     b10:	02850513          	addi	a0,a0,40
     b14:	03558593          	addi	a1,a1,53
     b18:	8432                	mv	s0,a2
     b1a:	01059693          	slli	a3,a1,0x10
     b1e:	01051613          	slli	a2,a0,0x10
     b22:	8241                	srli	a2,a2,0x10
     b24:	82c1                	srli	a3,a3,0x10
     b26:	0087e793          	ori	a5,a5,8
     b2a:	c8dc                	sw	a5,20(s1)
     b2c:	8532                	mv	a0,a2
     b2e:	85b6                	mv	a1,a3
     b30:	374d                	jal	ad2 <_ZL14tft_set_windowtttt>
     b32:	8522                	mv	a0,s0
     b34:	3fb5                	jal	ab0 <_ZL13write_data_16t>
     b36:	489c                	lw	a5,16(s1)
     b38:	0087e793          	ori	a5,a5,8
     b3c:	c89c                	sw	a5,16(s1)
     b3e:	b961                	j	7d6 <__riscv_restore_0>

00000b40 <_ZL12SPI_send_DMAPKhtt.constprop.0>:
     b40:	400207b7          	lui	a5,0x40020
     b44:	c7018713          	addi	a4,gp,-912 # 2000006c <_ZL7_buffer>
     b48:	dfd8                	sw	a4,60(a5)
     b4a:	dbc8                	sw	a0,52(a5)
     b4c:	5b98                	lw	a4,48(a5)
     b4e:	400206b7          	lui	a3,0x40020
     b52:	20000613          	li	a2,512
     b56:	00176713          	ori	a4,a4,1
     b5a:	db98                	sw	a4,48(a5)
     b5c:	67c1                	lui	a5,0x10
     b5e:	17fd                	addi	a5,a5,-1 # ffff <fix_fft.cpp.5eff4be4+0x71f7>
     b60:	15fd                	addi	a1,a1,-1
     b62:	05c2                	slli	a1,a1,0x10
     b64:	81c1                	srli	a1,a1,0x10
     b66:	00f59863          	bne	a1,a5,b76 <_ZL12SPI_send_DMAPKhtt.constprop.0+0x36>
     b6a:	40020737          	lui	a4,0x40020
     b6e:	5b1c                	lw	a5,48(a4)
     b70:	9bf9                	andi	a5,a5,-2
     b72:	db1c                	sw	a5,48(a4)
     b74:	8082                	ret
     b76:	c2d0                	sw	a2,4(a3)
     b78:	4298                	lw	a4,0(a3)
     b7a:	20077713          	andi	a4,a4,512
     b7e:	df6d                	beqz	a4,b78 <_ZL12SPI_send_DMAPKhtt.constprop.0+0x38>
     b80:	b7c5                	j	b60 <_ZL12SPI_send_DMAPKhtt.constprop.0+0x20>

00000b82 <_Z14tft_print_charch>:
     b82:	c4bff2ef          	jal	t0,7cc <__riscv_save_0>
     b86:	0ff57513          	zext.b	a0,a0
     b8a:	fdc10113          	addi	sp,sp,-36
     b8e:	00351793          	slli	a5,a0,0x3
     b92:	c23e                	sw	a5,4(sp)
     b94:	c621d783          	lhu	a5,-926(gp) # 2000005e <_ZL6_color>
     b98:	00359493          	slli	s1,a1,0x3
     b9c:	842e                	mv	s0,a1
     b9e:	15fd                	addi	a1,a1,-1
     ba0:	c63e                	sw	a5,12(sp)
     ba2:	0ff5f593          	zext.b	a1,a1
     ba6:	00141793          	slli	a5,s0,0x1
     baa:	c83e                	sw	a5,16(sp)
     bac:	00958513          	addi	a0,a1,9
     bb0:	408487b3          	sub	a5,s1,s0
     bb4:	953e                	add	a0,a0,a5
     bb6:	c026                	sw	s1,0(sp)
     bb8:	ca26                	sw	s1,20(sp)
     bba:	311d                	jal	7e0 <__mulsi3>
     bbc:	c7018793          	addi	a5,gp,-912 # 2000006c <_ZL7_buffer>
     bc0:	d03e                	sw	a5,32(sp)
     bc2:	678d                	lui	a5,0x3
     bc4:	fb078793          	addi	a5,a5,-80 # 2fb0 <_ZL5fontk>
     bc8:	0506                	slli	a0,a0,0x1
     bca:	cc3e                	sw	a5,24(sp)
     bcc:	00441793          	slli	a5,s0,0x4
     bd0:	4301                	li	t1,0
     bd2:	4281                	li	t0,0
     bd4:	ce3e                	sw	a5,28(sp)
     bd6:	01050493          	addi	s1,a0,16
     bda:	4785                	li	a5,1
     bdc:	006797b3          	sll	a5,a5,t1
     be0:	0ff7f793          	zext.b	a5,a5
     be4:	c43e                	sw	a5,8(sp)
     be6:	8516                	mv	a0,t0
     be8:	4581                	li	a1,0
     bea:	40a1                	li	ra,8
     bec:	5782                	lw	a5,32(sp)
     bee:	4681                	li	a3,0
     bf0:	97aa                	add	a5,a5,a0
     bf2:	4712                	lw	a4,4(sp)
     bf4:	43e2                	lw	t2,24(sp)
     bf6:	9736                	add	a4,a4,a3
     bf8:	971e                	add	a4,a4,t2
     bfa:	00074383          	lbu	t2,0(a4) # 40020000 <_eusrstack+0x2001f800>
     bfe:	4722                	lw	a4,8(sp)
     c00:	007773b3          	and	t2,a4,t2
     c04:	4701                	li	a4,0
     c06:	00038363          	beqz	t2,c0c <_Z14tft_print_charch+0x8a>
     c0a:	4732                	lw	a4,12(sp)
     c0c:	00875393          	srli	t2,a4,0x8
     c10:	0ff77713          	zext.b	a4,a4
     c14:	00778023          	sb	t2,0(a5)
     c18:	b398                	sb	a4,1(a5)
     c1a:	4609                	li	a2,2
     c1c:	00c41563          	bne	s0,a2,c26 <_Z14tft_print_charch+0xa4>
     c20:	00778123          	sb	t2,2(a5)
     c24:	b3b8                	sb	a4,3(a5)
     c26:	4742                	lw	a4,16(sp)
     c28:	0685                	addi	a3,a3,1 # 40020001 <_eusrstack+0x2001f801>
     c2a:	97ba                	add	a5,a5,a4
     c2c:	fc1693e3          	bne	a3,ra,bf2 <_Z14tft_print_charch+0x70>
     c30:	47f2                	lw	a5,28(sp)
     c32:	0585                	addi	a1,a1,1
     c34:	0ff5f593          	zext.b	a1,a1
     c38:	953e                	add	a0,a0,a5
     c3a:	fab419e3          	bne	s0,a1,bec <_Z14tft_print_charch+0x6a>
     c3e:	0305                	addi	t1,t1,1
     c40:	92a6                	add	t0,t0,s1
     c42:	f8d31ce3          	bne	t1,a3,bda <_Z14tft_print_charch+0x58>
     c46:	400114b7          	lui	s1,0x40011
     c4a:	48d8                	lw	a4,20(s1)
     c4c:	4782                	lw	a5,0(sp)
     c4e:	00876713          	ori	a4,a4,8
     c52:	c8d8                	sw	a4,20(s1)
     c54:	fde1d503          	lhu	a0,-34(gp) # 200003da <_ZL9_cursor_x>
     c58:	fdc1d583          	lhu	a1,-36(gp) # 200003d8 <_ZL9_cursor_y>
     c5c:	fff50713          	addi	a4,a0,-1
     c60:	00e78633          	add	a2,a5,a4
     c64:	fff58693          	addi	a3,a1,-1
     c68:	96be                	add	a3,a3,a5
     c6a:	06c2                	slli	a3,a3,0x10
     c6c:	0642                	slli	a2,a2,0x10
     c6e:	8241                	srli	a2,a2,0x10
     c70:	82c1                	srli	a3,a3,0x10
     c72:	3585                	jal	ad2 <_ZL14tft_set_windowtttt>
     c74:	40048693          	addi	a3,s1,1024 # 40011400 <_eusrstack+0x20010c00>
     c78:	4a98                	lw	a4,16(a3)
     c7a:	45d2                	lw	a1,20(sp)
     c7c:	8522                	mv	a0,s0
     c7e:	00176713          	ori	a4,a4,1
     c82:	ca98                	sw	a4,16(a3)
     c84:	3eb1                	jal	7e0 <__mulsi3>
     c86:	0512                	slli	a0,a0,0x4
     c88:	0542                	slli	a0,a0,0x10
     c8a:	8141                	srli	a0,a0,0x10
     c8c:	4585                	li	a1,1
     c8e:	3d4d                	jal	b40 <_ZL12SPI_send_DMAPKhtt.constprop.0>
     c90:	4898                	lw	a4,16(s1)
     c92:	00876713          	ori	a4,a4,8
     c96:	c898                	sw	a4,16(s1)
     c98:	02410113          	addi	sp,sp,36
     c9c:	be2d                	j	7d6 <__riscv_restore_0>

00000c9e <_ZL10printAsciis>:
     c9e:	b2fff2ef          	jal	t0,7cc <__riscv_save_0>
     ca2:	fd81a583          	lw	a1,-40(gp) # 200003d4 <lcdindex>
     ca6:	1131                	addi	sp,sp,-20
     ca8:	c02a                	sw	a0,0(sp)
     caa:	4631                	li	a2,12
     cac:	08b65a63          	bge	a2,a1,d40 <_ZL10printAsciis+0xa2>
     cb0:	fb818313          	addi	t1,gp,-72 # 200003b4 <line1>
     cb4:	fc01ac23          	sw	zero,-40(gp) # 200003d4 <lcdindex>
     cb8:	fc818293          	addi	t0,gp,-56 # 200003c4 <line2>
     cbc:	fb818793          	addi	a5,gp,-72 # 200003b4 <line1>
     cc0:	02800613          	li	a2,40
     cc4:	00028503          	lb	a0,0(t0)
     cc8:	04900593          	li	a1,73
     ccc:	fcb19e23          	sh	a1,-36(gp) # 200003d8 <_ZL9_cursor_y>
     cd0:	4589                	li	a1,2
     cd2:	fcc19f23          	sh	a2,-34(gp) # 200003da <_ZL9_cursor_x>
     cd6:	c83e                	sw	a5,16(sp)
     cd8:	c61a                	sw	t1,12(sp)
     cda:	c432                	sw	a2,8(sp)
     cdc:	c216                	sw	t0,4(sp)
     cde:	3555                	jal	b82 <_Z14tft_print_charch>
     ce0:	47c2                	lw	a5,16(sp)
     ce2:	4622                	lw	a2,8(sp)
     ce4:	4292                	lw	t0,4(sp)
     ce6:	238c                	lbu	a1,0(a5)
     ce8:	0631                	addi	a2,a2,12
     cea:	0642                	slli	a2,a2,0x10
     cec:	00b28023          	sb	a1,0(t0)
     cf0:	8241                	srli	a2,a2,0x10
     cf2:	0c400593          	li	a1,196
     cf6:	4332                	lw	t1,12(sp)
     cf8:	0285                	addi	t0,t0,1
     cfa:	0785                	addi	a5,a5,1
     cfc:	fcb614e3          	bne	a2,a1,cc4 <_ZL10printAsciis+0x26>
     d00:	02800793          	li	a5,40
     d04:	00030503          	lb	a0,0(t1)
     d08:	05d00613          	li	a2,93
     d0c:	4589                	li	a1,2
     d0e:	fcf19f23          	sh	a5,-34(gp) # 200003da <_ZL9_cursor_x>
     d12:	c43e                	sw	a5,8(sp)
     d14:	c21a                	sw	t1,4(sp)
     d16:	fcc19e23          	sh	a2,-36(gp) # 200003d8 <_ZL9_cursor_y>
     d1a:	35a5                	jal	b82 <_Z14tft_print_charch>
     d1c:	07100613          	li	a2,113
     d20:	4589                	li	a1,2
     d22:	02000513          	li	a0,32
     d26:	fcc19e23          	sh	a2,-36(gp) # 200003d8 <_ZL9_cursor_y>
     d2a:	3da1                	jal	b82 <_Z14tft_print_charch>
     d2c:	47a2                	lw	a5,8(sp)
     d2e:	4312                	lw	t1,4(sp)
     d30:	0c400613          	li	a2,196
     d34:	07b1                	addi	a5,a5,12
     d36:	07c2                	slli	a5,a5,0x10
     d38:	83c1                	srli	a5,a5,0x10
     d3a:	0305                	addi	t1,t1,1
     d3c:	fcc794e3          	bne	a5,a2,d04 <_ZL10printAsciis+0x66>
     d40:	fd81a603          	lw	a2,-40(gp) # 200003d4 <lcdindex>
     d44:	4702                	lw	a4,0(sp)
     d46:	fb818793          	addi	a5,gp,-72 # 200003b4 <line1>
     d4a:	97b2                	add	a5,a5,a2
     d4c:	a398                	sb	a4,0(a5)
     d4e:	00161793          	slli	a5,a2,0x1
     d52:	97b2                	add	a5,a5,a2
     d54:	00010503          	lb	a0,0(sp)
     d58:	078a                	slli	a5,a5,0x2
     d5a:	02878793          	addi	a5,a5,40
     d5e:	fcf19f23          	sh	a5,-34(gp) # 200003da <_ZL9_cursor_x>
     d62:	4589                	li	a1,2
     d64:	07100793          	li	a5,113
     d68:	c232                	sw	a2,4(sp)
     d6a:	fcf19e23          	sh	a5,-36(gp) # 200003d8 <_ZL9_cursor_y>
     d6e:	3d11                	jal	b82 <_Z14tft_print_charch>
     d70:	4612                	lw	a2,4(sp)
     d72:	0605                	addi	a2,a2,1
     d74:	fcc1ac23          	sw	a2,-40(gp) # 200003d4 <lcdindex>
     d78:	0151                	addi	sp,sp,20
     d7a:	bcb1                	j	7d6 <__riscv_restore_0>

00000d7c <_Z9tft_printPKch>:
     d7c:	a51ff2ef          	jal	t0,7cc <__riscv_save_0>
     d80:	00159493          	slli	s1,a1,0x1
     d84:	94ae                	add	s1,s1,a1
     d86:	1171                	addi	sp,sp,-4
     d88:	842a                	mv	s0,a0
     d8a:	0486                	slli	s1,s1,0x1
     d8c:	00040503          	lb	a0,0(s0)
     d90:	e119                	bnez	a0,d96 <_Z9tft_printPKch+0x1a>
     d92:	0111                	addi	sp,sp,4
     d94:	b489                	j	7d6 <__riscv_restore_0>
     d96:	c02e                	sw	a1,0(sp)
     d98:	33ed                	jal	b82 <_Z14tft_print_charch>
     d9a:	fde1d783          	lhu	a5,-34(gp) # 200003da <_ZL9_cursor_x>
     d9e:	4582                	lw	a1,0(sp)
     da0:	0405                	addi	s0,s0,1
     da2:	97a6                	add	a5,a5,s1
     da4:	fcf19f23          	sh	a5,-34(gp) # 200003da <_ZL9_cursor_x>
     da8:	b7d5                	j	d8c <_Z9tft_printPKch+0x10>

00000daa <_ZL21_tft_draw_fast_v_linessst>:
     daa:	a23ff2ef          	jal	t0,7cc <__riscv_save_0>
     dae:	00869713          	slli	a4,a3,0x8
     db2:	82a1                	srli	a3,a3,0x8
     db4:	8f55                	or	a4,a4,a3
     db6:	40011437          	lui	s0,0x40011
     dba:	c6e19823          	sh	a4,-912(gp) # 2000006c <_ZL7_buffer>
     dbe:	01061493          	slli	s1,a2,0x10
     dc2:	03558593          	addi	a1,a1,53
     dc6:	4858                	lw	a4,20(s0)
     dc8:	80c1                	srli	s1,s1,0x10
     dca:	05c2                	slli	a1,a1,0x10
     dcc:	81c1                	srli	a1,a1,0x10
     dce:	02850793          	addi	a5,a0,40
     dd2:	fff48693          	addi	a3,s1,-1
     dd6:	96ae                	add	a3,a3,a1
     dd8:	07c2                	slli	a5,a5,0x10
     dda:	83c1                	srli	a5,a5,0x10
     ddc:	00876713          	ori	a4,a4,8
     de0:	06c2                	slli	a3,a3,0x10
     de2:	863e                	mv	a2,a5
     de4:	c858                	sw	a4,20(s0)
     de6:	82c1                	srli	a3,a3,0x10
     de8:	853e                	mv	a0,a5
     dea:	31e5                	jal	ad2 <_ZL14tft_set_windowtttt>
     dec:	40040713          	addi	a4,s0,1024 # 40011400 <_eusrstack+0x20010c00>
     df0:	4b1c                	lw	a5,16(a4)
     df2:	85a6                	mv	a1,s1
     df4:	4509                	li	a0,2
     df6:	0017e793          	ori	a5,a5,1
     dfa:	cb1c                	sw	a5,16(a4)
     dfc:	3391                	jal	b40 <_ZL12SPI_send_DMAPKhtt.constprop.0>
     dfe:	481c                	lw	a5,16(s0)
     e00:	0087e793          	ori	a5,a5,8
     e04:	c81c                	sw	a5,16(s0)
     e06:	bac1                	j	7d6 <__riscv_restore_0>

00000e08 <_ZL21_tft_draw_fast_h_linessst>:
     e08:	9c5ff2ef          	jal	t0,7cc <__riscv_save_0>
     e0c:	87b6                	mv	a5,a3
     e0e:	00879713          	slli	a4,a5,0x8
     e12:	83a1                	srli	a5,a5,0x8
     e14:	8fd9                	or	a5,a5,a4
     e16:	40011437          	lui	s0,0x40011
     e1a:	c6f19823          	sh	a5,-912(gp) # 2000006c <_ZL7_buffer>
     e1e:	01061493          	slli	s1,a2,0x10
     e22:	02850513          	addi	a0,a0,40
     e26:	485c                	lw	a5,20(s0)
     e28:	80c1                	srli	s1,s1,0x10
     e2a:	0542                	slli	a0,a0,0x10
     e2c:	8141                	srli	a0,a0,0x10
     e2e:	03558693          	addi	a3,a1,53
     e32:	fff48613          	addi	a2,s1,-1
     e36:	962a                	add	a2,a2,a0
     e38:	06c2                	slli	a3,a3,0x10
     e3a:	82c1                	srli	a3,a3,0x10
     e3c:	0087e793          	ori	a5,a5,8
     e40:	0642                	slli	a2,a2,0x10
     e42:	85b6                	mv	a1,a3
     e44:	c85c                	sw	a5,20(s0)
     e46:	8241                	srli	a2,a2,0x10
     e48:	3169                	jal	ad2 <_ZL14tft_set_windowtttt>
     e4a:	40040713          	addi	a4,s0,1024 # 40011400 <_eusrstack+0x20010c00>
     e4e:	4b1c                	lw	a5,16(a4)
     e50:	85a6                	mv	a1,s1
     e52:	4509                	li	a0,2
     e54:	0017e793          	ori	a5,a5,1
     e58:	cb1c                	sw	a5,16(a4)
     e5a:	31dd                	jal	b40 <_ZL12SPI_send_DMAPKhtt.constprop.0>
     e5c:	481c                	lw	a5,16(s0)
     e5e:	0087e793          	ori	a5,a5,8
     e62:	c81c                	sw	a5,16(s0)
     e64:	973ff06f          	j	7d6 <__riscv_restore_0>

00000e68 <_Z13tft_draw_linesssst>:
     e68:	965ff2ef          	jal	t0,7cc <__riscv_save_0>
     e6c:	fdc10113          	addi	sp,sp,-36
     e70:	c03a                	sw	a4,0(sp)
     e72:	87aa                	mv	a5,a0
     e74:	02c51363          	bne	a0,a2,e9a <_Z13tft_draw_linesssst+0x32>
     e78:	00b6d563          	bge	a3,a1,e82 <_Z13tft_draw_linesssst+0x1a>
     e7c:	872e                	mv	a4,a1
     e7e:	85b6                	mv	a1,a3
     e80:	86ba                	mv	a3,a4
     e82:	0685                	addi	a3,a3,1
     e84:	40b68633          	sub	a2,a3,a1
     e88:	4682                	lw	a3,0(sp)
     e8a:	0642                	slli	a2,a2,0x10
     e8c:	8641                	srai	a2,a2,0x10
     e8e:	853e                	mv	a0,a5
     e90:	3f29                	jal	daa <_ZL21_tft_draw_fast_v_linessst>
     e92:	02410113          	addi	sp,sp,36
     e96:	941ff06f          	j	7d6 <__riscv_restore_0>
     e9a:	00d59e63          	bne	a1,a3,eb6 <_Z13tft_draw_linesssst+0x4e>
     e9e:	00a65463          	bge	a2,a0,ea6 <_Z13tft_draw_linesssst+0x3e>
     ea2:	87b2                	mv	a5,a2
     ea4:	862a                	mv	a2,a0
     ea6:	0605                	addi	a2,a2,1
     ea8:	8e1d                	sub	a2,a2,a5
     eaa:	4682                	lw	a3,0(sp)
     eac:	0642                	slli	a2,a2,0x10
     eae:	8641                	srai	a2,a2,0x10
     eb0:	853e                	mv	a0,a5
     eb2:	3f99                	jal	e08 <_ZL21_tft_draw_fast_h_linessst>
     eb4:	bff9                	j	e92 <_Z13tft_draw_linesssst+0x2a>
     eb6:	40d582b3          	sub	t0,a1,a3
     eba:	00d5d463          	bge	a1,a3,ec2 <_Z13tft_draw_linesssst+0x5a>
     ebe:	40b682b3          	sub	t0,a3,a1
     ec2:	0ac7d363          	bge	a5,a2,f68 <_Z13tft_draw_linesssst+0x100>
     ec6:	40f604b3          	sub	s1,a2,a5
     eca:	0a54c963          	blt	s1,t0,f7c <_Z13tft_draw_linesssst+0x114>
     ece:	8736                	mv	a4,a3
     ed0:	86b2                	mv	a3,a2
     ed2:	863a                	mv	a2,a4
     ed4:	872e                	mv	a4,a1
     ed6:	85be                	mv	a1,a5
     ed8:	87ba                	mv	a5,a4
     eda:	40b68733          	sub	a4,a3,a1
     ede:	01071513          	slli	a0,a4,0x10
     ee2:	8141                	srli	a0,a0,0x10
     ee4:	0742                	slli	a4,a4,0x10
     ee6:	c82a                	sw	a0,16(sp)
     ee8:	01079413          	slli	s0,a5,0x10
     eec:	01061513          	slli	a0,a2,0x10
     ef0:	8741                	srai	a4,a4,0x10
     ef2:	8041                	srli	s0,s0,0x10
     ef4:	8141                	srli	a0,a0,0x10
     ef6:	8705                	srai	a4,a4,0x1
     ef8:	08c7db63          	bge	a5,a2,f8e <_Z13tft_draw_linesssst+0x126>
     efc:	8d01                	sub	a0,a0,s0
     efe:	01051413          	slli	s0,a0,0x10
     f02:	8441                	srai	s0,s0,0x10
     f04:	4605                	li	a2,1
     f06:	c632                	sw	a2,12(sp)
     f08:	f8b6c5e3          	blt	a3,a1,e92 <_Z13tft_draw_linesssst+0x2a>
     f0c:	01059613          	slli	a2,a1,0x10
     f10:	8241                	srli	a2,a2,0x10
     f12:	c432                	sw	a2,8(sp)
     f14:	01079613          	slli	a2,a5,0x10
     f18:	8241                	srli	a2,a2,0x10
     f1a:	c232                	sw	a2,4(sp)
     f1c:	d036                	sw	a3,32(sp)
     f1e:	ce3e                	sw	a5,28(sp)
     f20:	cc3a                	sw	a4,24(sp)
     f22:	ca16                	sw	t0,20(sp)
     f24:	4602                	lw	a2,0(sp)
     f26:	0654d963          	bge	s1,t0,f98 <_Z13tft_draw_linesssst+0x130>
     f2a:	45a2                	lw	a1,8(sp)
     f2c:	4512                	lw	a0,4(sp)
     f2e:	3ee1                	jal	b06 <_Z14tft_draw_pixelttt>
     f30:	42d2                	lw	t0,20(sp)
     f32:	4762                	lw	a4,24(sp)
     f34:	47f2                	lw	a5,28(sp)
     f36:	5682                	lw	a3,32(sp)
     f38:	8f01                	sub	a4,a4,s0
     f3a:	01071613          	slli	a2,a4,0x10
     f3e:	0742                	slli	a4,a4,0x10
     f40:	8741                	srai	a4,a4,0x10
     f42:	8241                	srli	a2,a2,0x10
     f44:	00075c63          	bgez	a4,f5c <_Z13tft_draw_linesssst+0xf4>
     f48:	47c2                	lw	a5,16(sp)
     f4a:	97b2                	add	a5,a5,a2
     f4c:	01079713          	slli	a4,a5,0x10
     f50:	4632                	lw	a2,12(sp)
     f52:	4792                	lw	a5,4(sp)
     f54:	8741                	srai	a4,a4,0x10
     f56:	97b2                	add	a5,a5,a2
     f58:	07c2                	slli	a5,a5,0x10
     f5a:	87c1                	srai	a5,a5,0x10
     f5c:	4622                	lw	a2,8(sp)
     f5e:	00160593          	addi	a1,a2,1
     f62:	05c2                	slli	a1,a1,0x10
     f64:	85c1                	srai	a1,a1,0x10
     f66:	b74d                	j	f08 <_Z13tft_draw_linesssst+0xa0>
     f68:	40c784b3          	sub	s1,a5,a2
     f6c:	0054c863          	blt	s1,t0,f7c <_Z13tft_draw_linesssst+0x114>
     f70:	8736                	mv	a4,a3
     f72:	86b2                	mv	a3,a2
     f74:	863a                	mv	a2,a4
     f76:	872e                	mv	a4,a1
     f78:	85be                	mv	a1,a5
     f7a:	87ba                	mv	a5,a4
     f7c:	f4b6dfe3          	bge	a3,a1,eda <_Z13tft_draw_linesssst+0x72>
     f80:	873e                	mv	a4,a5
     f82:	87b2                	mv	a5,a2
     f84:	863a                	mv	a2,a4
     f86:	872e                	mv	a4,a1
     f88:	85b6                	mv	a1,a3
     f8a:	86ba                	mv	a3,a4
     f8c:	b7b9                	j	eda <_Z13tft_draw_linesssst+0x72>
     f8e:	8c09                	sub	s0,s0,a0
     f90:	0442                	slli	s0,s0,0x10
     f92:	8441                	srai	s0,s0,0x10
     f94:	567d                	li	a2,-1
     f96:	bf85                	j	f06 <_Z13tft_draw_linesssst+0x9e>
     f98:	4592                	lw	a1,4(sp)
     f9a:	4522                	lw	a0,8(sp)
     f9c:	36ad                	jal	b06 <_Z14tft_draw_pixelttt>
     f9e:	5682                	lw	a3,32(sp)
     fa0:	47f2                	lw	a5,28(sp)
     fa2:	4762                	lw	a4,24(sp)
     fa4:	42d2                	lw	t0,20(sp)
     fa6:	bf49                	j	f38 <_Z13tft_draw_linesssst+0xd0>

00000fa8 <_Z13tft_fill_rectttttt.constprop.0>:
     fa8:	825ff2ef          	jal	t0,7cc <__riscv_save_0>
     fac:	02850513          	addi	a0,a0,40
     fb0:	03558593          	addi	a1,a1,53
     fb4:	0542                	slli	a0,a0,0x10
     fb6:	05c2                	slli	a1,a1,0x10
     fb8:	1171                	addi	sp,sp,-4
     fba:	8336                	mv	t1,a3
     fbc:	8141                	srli	a0,a0,0x10
     fbe:	81c1                	srli	a1,a1,0x10
     fc0:	c7018793          	addi	a5,gp,-912 # 2000006c <_ZL7_buffer>
     fc4:	4401                	li	s0,0
     fc6:	0405                	addi	s0,s0,1
     fc8:	0442                	slli	s0,s0,0x10
     fca:	00078023          	sb	zero,0(a5)
     fce:	000780a3          	sb	zero,1(a5)
     fd2:	8041                	srli	s0,s0,0x10
     fd4:	0789                	addi	a5,a5,2
     fd6:	fec418e3          	bne	s0,a2,fc6 <_Z13tft_fill_rectttttt.constprop.0+0x1e>
     fda:	400114b7          	lui	s1,0x40011
     fde:	48d8                	lw	a4,20(s1)
     fe0:	fff30693          	addi	a3,t1,-1
     fe4:	fff40613          	addi	a2,s0,-1
     fe8:	96ae                	add	a3,a3,a1
     fea:	962a                	add	a2,a2,a0
     fec:	00876713          	ori	a4,a4,8
     ff0:	06c2                	slli	a3,a3,0x10
     ff2:	0642                	slli	a2,a2,0x10
     ff4:	c8d8                	sw	a4,20(s1)
     ff6:	8241                	srli	a2,a2,0x10
     ff8:	82c1                	srli	a3,a3,0x10
     ffa:	c01a                	sw	t1,0(sp)
     ffc:	3cd9                	jal	ad2 <_ZL14tft_set_windowtttt>
     ffe:	40048693          	addi	a3,s1,1024 # 40011400 <_eusrstack+0x20010c00>
    1002:	4a98                	lw	a4,16(a3)
    1004:	4302                	lw	t1,0(sp)
    1006:	00141513          	slli	a0,s0,0x1
    100a:	00176713          	ori	a4,a4,1
    100e:	0542                	slli	a0,a0,0x10
    1010:	ca98                	sw	a4,16(a3)
    1012:	8141                	srli	a0,a0,0x10
    1014:	859a                	mv	a1,t1
    1016:	362d                	jal	b40 <_ZL12SPI_send_DMAPKhtt.constprop.0>
    1018:	4898                	lw	a4,16(s1)
    101a:	00876713          	ori	a4,a4,8
    101e:	c898                	sw	a4,16(s1)
    1020:	0111                	addi	sp,sp,4
    1022:	fb4ff06f          	j	7d6 <__riscv_restore_0>

00001026 <_ZL15GPIO_analogRead18GPIO_analog_inputs.constprop.0>:
    1026:	fa6ff2ef          	jal	t0,7cc <__riscv_save_0>
    102a:	40012437          	lui	s0,0x40012
    102e:	40040413          	addi	s0,s0,1024 # 40012400 <_eusrstack+0x20011c00>
    1032:	02042a23          	sw	zero,52(s0)
    1036:	25800513          	li	a0,600
    103a:	947ff0ef          	jal	ra,980 <DelaySysTick>
    103e:	441c                	lw	a5,8(s0)
    1040:	00400737          	lui	a4,0x400
    1044:	400126b7          	lui	a3,0x40012
    1048:	8fd9                	or	a5,a5,a4
    104a:	c41c                	sw	a5,8(s0)
    104c:	40068713          	addi	a4,a3,1024 # 40012400 <_eusrstack+0x20011c00>
    1050:	431c                	lw	a5,0(a4)
    1052:	8b89                	andi	a5,a5,2
    1054:	dfe5                	beqz	a5,104c <_ZL15GPIO_analogRead18GPIO_analog_inputs.constprop.0+0x26>
    1056:	4768                	lw	a0,76(a4)
    1058:	0542                	slli	a0,a0,0x10
    105a:	8141                	srli	a0,a0,0x10
    105c:	f7aff06f          	j	7d6 <__riscv_restore_0>

00001060 <_ZL11decodeAsciis.isra.0>:
    1060:	c52d                	beqz	a0,10ca <_ZL11decodeAsciis.isra.0+0x6a>
    1062:	f6aff2ef          	jal	t0,7cc <__riscv_save_0>
    1066:	c6c1c783          	lbu	a5,-916(gp) # 20000068 <lastChar>
    106a:	02000713          	li	a4,32
    106e:	842a                	mv	s0,a0
    1070:	00e79463          	bne	a5,a4,1078 <_ZL11decodeAsciis.isra.0+0x18>
    1074:	00f50d63          	beq	a0,a5,108e <_ZL11decodeAsciis.isra.0+0x2e>
    1078:	4785                	li	a5,1
    107a:	00f41c63          	bne	s0,a5,1092 <_ZL11decodeAsciis.isra.0+0x32>
    107e:	04100513          	li	a0,65
    1082:	3931                	jal	c9e <_ZL10printAsciis>
    1084:	05200513          	li	a0,82
    1088:	3919                	jal	c9e <_ZL10printAsciis>
    108a:	c6818623          	sb	s0,-916(gp) # 20000068 <lastChar>
    108e:	f48ff06f          	j	7d6 <__riscv_restore_0>
    1092:	4789                	li	a5,2
    1094:	00f41863          	bne	s0,a5,10a4 <_ZL11decodeAsciis.isra.0+0x44>
    1098:	04b00513          	li	a0,75
    109c:	3109                	jal	c9e <_ZL10printAsciis>
    109e:	04e00513          	li	a0,78
    10a2:	b7dd                	j	1088 <_ZL11decodeAsciis.isra.0+0x28>
    10a4:	478d                	li	a5,3
    10a6:	00f41863          	bne	s0,a5,10b6 <_ZL11decodeAsciis.isra.0+0x56>
    10aa:	04200513          	li	a0,66
    10ae:	3ec5                	jal	c9e <_ZL10printAsciis>
    10b0:	05400513          	li	a0,84
    10b4:	bfd1                	j	1088 <_ZL11decodeAsciis.isra.0+0x28>
    10b6:	4791                	li	a5,4
    10b8:	8522                	mv	a0,s0
    10ba:	fcf417e3          	bne	s0,a5,1088 <_ZL11decodeAsciis.isra.0+0x28>
    10be:	05600513          	li	a0,86
    10c2:	3ef1                	jal	c9e <_ZL10printAsciis>
    10c4:	04100513          	li	a0,65
    10c8:	b7c1                	j	1088 <_ZL11decodeAsciis.isra.0+0x28>
    10ca:	8082                	ret

000010cc <handle_reset>:
    10cc:	1ffff197          	auipc	gp,0x1ffff
    10d0:	33018193          	addi	gp,gp,816 # 200003fc <__global_pointer$>
    10d4:	40418113          	addi	sp,gp,1028 # 20000800 <_eusrstack>
    10d8:	6509                	lui	a0,0x2
    10da:	88050513          	addi	a0,a0,-1920 # 1880 <_Z6docodePcS_.constprop.0+0x420>
    10de:	30051073          	.4byte	0x30051073
    10e2:	468d                	li	a3,3
    10e4:	fffff517          	auipc	a0,0xfffff
    10e8:	f1c50513          	addi	a0,a0,-228 # 0 <InterruptVector>
    10ec:	8d55                	or	a0,a0,a3
    10ee:	30551073          	.4byte	0x30551073
    10f2:	c6c18513          	addi	a0,gp,-916 # 20000068 <lastChar>
    10f6:	fe418593          	addi	a1,gp,-28 # 200003e0 <_ebss>
    10fa:	4601                	li	a2,0
    10fc:	00b55663          	bge	a0,a1,1108 <handle_reset+0x3c>
    1100:	c110                	sw	a2,0(a0)
    1102:	0511                	addi	a0,a0,4
    1104:	feb54ee3          	blt	a0,a1,1100 <handle_reset+0x34>
    1108:	00002517          	auipc	a0,0x2
    110c:	79850513          	addi	a0,a0,1944 # 38a0 <_data_lma>
    1110:	c0418593          	addi	a1,gp,-1020 # 20000000 <_ZL6title3.lto_priv.0>
    1114:	c6c18613          	addi	a2,gp,-916 # 20000068 <lastChar>
    1118:	00c58863          	beq	a1,a2,1128 <handle_reset+0x5c>
    111c:	4114                	lw	a3,0(a0)
    111e:	c194                	sw	a3,0(a1)
    1120:	0511                	addi	a0,a0,4
    1122:	0591                	addi	a1,a1,4
    1124:	fec59ae3          	bne	a1,a2,1118 <handle_reset+0x4c>
    1128:	e000f7b7          	lui	a5,0xe000f
    112c:	4705                	li	a4,1
    112e:	c398                	sw	a4,0(a5)
    1130:	6789                	lui	a5,0x2
    1132:	f7a78793          	addi	a5,a5,-134 # 1f7a <main>
    1136:	34179073          	.4byte	0x34179073
    113a:	30200073          	mret

0000113e <NMI_Handler>:
    113e:	40021737          	lui	a4,0x40021
    1142:	471c                	lw	a5,8(a4)
    1144:	008006b7          	lui	a3,0x800
    1148:	8fd5                	or	a5,a5,a3
    114a:	c71c                	sw	a5,8(a4)

0000114c <ADC1_2_IRQHandler>:
    114c:	34102573          	.4byte	0x34102573
    1150:	55b000ef          	jal	ra,1eaa <PrintHex>
    1154:	30002573          	.4byte	0x30002573
    1158:	553000ef          	jal	ra,1eaa <PrintHex>
    115c:	34302573          	.4byte	0x34302573
    1160:	54b000ef          	jal	ra,1eaa <PrintHex>
    1164:	34202573          	.4byte	0x34202573
    1168:	543000ef          	jal	ra,1eaa <PrintHex>
    116c:	4529                	li	a0,10
    116e:	523000ef          	jal	ra,1e90 <putchar>
    1172:	a001                	j	1172 <ADC1_2_IRQHandler+0x26>

00001174 <strlen>:
    1174:	87aa                	mv	a5,a0
    1176:	00078703          	lb	a4,0(a5)
    117a:	e701                	bnez	a4,1182 <strlen+0xe>
    117c:	40a78533          	sub	a0,a5,a0
    1180:	8082                	ret
    1182:	0785                	addi	a5,a5,1
    1184:	bfcd                	j	1176 <strlen+0x2>

00001186 <mini_vpprintf>:
    1186:	e46ff2ef          	jal	t0,7cc <__riscv_save_0>
    118a:	715d                	addi	sp,sp,-80
    118c:	c22a                	sw	a0,4(sp)
    118e:	c42e                	sw	a1,8(sp)
    1190:	8432                	mv	s0,a2
    1192:	84b6                	mv	s1,a3
    1194:	ca02                	sw	zero,20(sp)
    1196:	00040783          	lb	a5,0(s0)
    119a:	00140693          	addi	a3,s0,1
    119e:	00f10fa3          	sb	a5,31(sp)
    11a2:	e789                	bnez	a5,11ac <mini_vpprintf+0x26>
    11a4:	4552                	lw	a0,20(sp)
    11a6:	6161                	addi	sp,sp,80
    11a8:	e2eff06f          	j	7d6 <__riscv_restore_0>
    11ac:	c636                	sw	a3,12(sp)
    11ae:	02500713          	li	a4,37
    11b2:	02e78063          	beq	a5,a4,11d2 <mini_vpprintf+0x4c>
    11b6:	4622                	lw	a2,8(sp)
    11b8:	4792                	lw	a5,4(sp)
    11ba:	4585                	li	a1,1
    11bc:	01f10513          	addi	a0,sp,31
    11c0:	9782                	jalr	a5
    11c2:	46b2                	lw	a3,12(sp)
    11c4:	c026                	sw	s1,0(sp)
    11c6:	8436                	mv	s0,a3
    11c8:	47d2                	lw	a5,20(sp)
    11ca:	4482                	lw	s1,0(sp)
    11cc:	97aa                	add	a5,a5,a0
    11ce:	ca3e                	sw	a5,20(sp)
    11d0:	b7d9                	j	1196 <mini_vpprintf+0x10>
    11d2:	00140703          	lb	a4,1(s0)
    11d6:	03000613          	li	a2,48
    11da:	03000693          	li	a3,48
    11de:	00e10fa3          	sb	a4,31(sp)
    11e2:	c632                	sw	a2,12(sp)
    11e4:	00240793          	addi	a5,s0,2
    11e8:	06d71863          	bne	a4,a3,1258 <mini_vpprintf+0xd2>
    11ec:	843e                	mv	s0,a5
    11ee:	4601                	li	a2,0
    11f0:	4781                	li	a5,0
    11f2:	45a5                	li	a1,9
    11f4:	a821                	j	120c <mini_vpprintf+0x86>
    11f6:	00279713          	slli	a4,a5,0x2
    11fa:	0405                	addi	s0,s0,1
    11fc:	97ba                	add	a5,a5,a4
    11fe:	06e2                	slli	a3,a3,0x18
    1200:	fff40703          	lb	a4,-1(s0)
    1204:	0786                	slli	a5,a5,0x1
    1206:	86e1                	srai	a3,a3,0x18
    1208:	97b6                	add	a5,a5,a3
    120a:	4605                	li	a2,1
    120c:	fd070693          	addi	a3,a4,-48 # 40020fd0 <_eusrstack+0x200207d0>
    1210:	0ff6f513          	zext.b	a0,a3
    1214:	fea5f1e3          	bgeu	a1,a0,11f6 <mini_vpprintf+0x70>
    1218:	c219                	beqz	a2,121e <mini_vpprintf+0x98>
    121a:	00e10fa3          	sb	a4,31(sp)
    121e:	c83e                	sw	a5,16(sp)
    1220:	46e1                	li	a3,24
    1222:	00f6d363          	bge	a3,a5,1228 <mini_vpprintf+0xa2>
    1226:	c836                	sw	a3,16(sp)
    1228:	06c00693          	li	a3,108
    122c:	02d71a63          	bne	a4,a3,1260 <mini_vpprintf+0xda>
    1230:	2010                	lbu	a2,0(s0)
    1232:	06400693          	li	a3,100
    1236:	0405                	addi	s0,s0,1
    1238:	00c10fa3          	sb	a2,31(sp)
    123c:	0662                	slli	a2,a2,0x18
    123e:	8661                	srai	a2,a2,0x18
    1240:	4705                	li	a4,1
    1242:	04d61d63          	bne	a2,a3,129c <mini_vpprintf+0x116>
    1246:	00448793          	addi	a5,s1,4
    124a:	c03e                	sw	a5,0(sp)
    124c:	f8b60613          	addi	a2,a2,-117
    1250:	1018                	addi	a4,sp,32
    1252:	00163693          	seqz	a3,a2
    1256:	a00d                	j	1278 <mini_vpprintf+0xf2>
    1258:	02000693          	li	a3,32
    125c:	c636                	sw	a3,12(sp)
    125e:	b779                	j	11ec <mini_vpprintf+0x66>
    1260:	01f10603          	lb	a2,31(sp)
    1264:	06400693          	li	a3,100
    1268:	4701                	li	a4,0
    126a:	02d61963          	bne	a2,a3,129c <mini_vpprintf+0x116>
    126e:	00448793          	addi	a5,s1,4
    1272:	c03e                	sw	a5,0(sp)
    1274:	1018                	addi	a4,sp,32
    1276:	4681                	li	a3,0
    1278:	4088                	lw	a0,0(s1)
    127a:	4601                	li	a2,0
    127c:	45a9                	li	a1,10
    127e:	f18ff0ef          	jal	ra,996 <mini_itoa.part.0>
    1282:	46c2                	lw	a3,16(sp)
    1284:	4632                	lw	a2,12(sp)
    1286:	1838                	addi	a4,sp,56
    1288:	85aa                	mv	a1,a0
    128a:	1008                	addi	a0,sp,32
    128c:	e24ff0ef          	jal	ra,8b0 <mini_pad>
    1290:	4622                	lw	a2,8(sp)
    1292:	85aa                	mv	a1,a0
    1294:	1828                	addi	a0,sp,56
    1296:	4792                	lw	a5,4(sp)
    1298:	9782                	jalr	a5
    129a:	b73d                	j	11c8 <mini_vpprintf+0x42>
    129c:	06400693          	li	a3,100
    12a0:	02c6c463          	blt	a3,a2,12c8 <mini_vpprintf+0x142>
    12a4:	05800793          	li	a5,88
    12a8:	06f60263          	beq	a2,a5,130c <mini_vpprintf+0x186>
    12ac:	06300793          	li	a5,99
    12b0:	08f60063          	beq	a2,a5,1330 <mini_vpprintf+0x1aa>
    12b4:	ee0608e3          	beqz	a2,11a4 <mini_vpprintf+0x1e>
    12b8:	4622                	lw	a2,8(sp)
    12ba:	4792                	lw	a5,4(sp)
    12bc:	4585                	li	a1,1
    12be:	01f10513          	addi	a0,sp,31
    12c2:	9782                	jalr	a5
    12c4:	c026                	sw	s1,0(sp)
    12c6:	b709                	j	11c8 <mini_vpprintf+0x42>
    12c8:	07500693          	li	a3,117
    12cc:	02d60963          	beq	a2,a3,12fe <mini_vpprintf+0x178>
    12d0:	07800713          	li	a4,120
    12d4:	02e60c63          	beq	a2,a4,130c <mini_vpprintf+0x186>
    12d8:	07300713          	li	a4,115
    12dc:	fce61ee3          	bne	a2,a4,12b8 <mini_vpprintf+0x132>
    12e0:	cc3e                	sw	a5,24(sp)
    12e2:	00448793          	addi	a5,s1,4
    12e6:	4084                	lw	s1,0(s1)
    12e8:	c03e                	sw	a5,0(sp)
    12ea:	8526                	mv	a0,s1
    12ec:	3561                	jal	1174 <strlen>
    12ee:	47e2                	lw	a5,24(sp)
    12f0:	85aa                	mv	a1,a0
    12f2:	cfa1                	beqz	a5,134a <mini_vpprintf+0x1c4>
    12f4:	46c2                	lw	a3,16(sp)
    12f6:	4632                	lw	a2,12(sp)
    12f8:	1838                	addi	a4,sp,56
    12fa:	8526                	mv	a0,s1
    12fc:	bf41                	j	128c <mini_vpprintf+0x106>
    12fe:	00448793          	addi	a5,s1,4
    1302:	c03e                	sw	a5,0(sp)
    1304:	f721                	bnez	a4,124c <mini_vpprintf+0xc6>
    1306:	1018                	addi	a4,sp,32
    1308:	4685                	li	a3,1
    130a:	b7bd                	j	1278 <mini_vpprintf+0xf2>
    130c:	4088                	lw	a0,0(s1)
    130e:	fa860613          	addi	a2,a2,-88
    1312:	00448793          	addi	a5,s1,4
    1316:	1018                	addi	a4,sp,32
    1318:	4685                	li	a3,1
    131a:	00163613          	seqz	a2,a2
    131e:	45c1                	li	a1,16
    1320:	c03e                	sw	a5,0(sp)
    1322:	e74ff0ef          	jal	ra,996 <mini_itoa.part.0>
    1326:	46c2                	lw	a3,16(sp)
    1328:	4632                	lw	a2,12(sp)
    132a:	85aa                	mv	a1,a0
    132c:	1838                	addi	a4,sp,56
    132e:	bfb1                	j	128a <mini_vpprintf+0x104>
    1330:	00448793          	addi	a5,s1,4
    1334:	c03e                	sw	a5,0(sp)
    1336:	409c                	lw	a5,0(s1)
    1338:	46c2                	lw	a3,16(sp)
    133a:	4632                	lw	a2,12(sp)
    133c:	00f10fa3          	sb	a5,31(sp)
    1340:	1838                	addi	a4,sp,56
    1342:	4585                	li	a1,1
    1344:	01f10513          	addi	a0,sp,31
    1348:	b791                	j	128c <mini_vpprintf+0x106>
    134a:	4622                	lw	a2,8(sp)
    134c:	8526                	mv	a0,s1
    134e:	b7a1                	j	1296 <mini_vpprintf+0x110>

00001350 <mini_vsnprintf>:
    1350:	c7cff2ef          	jal	t0,7cc <__riscv_save_0>
    1354:	1151                	addi	sp,sp,-12
    1356:	c02a                	sw	a0,0(sp)
    1358:	c22a                	sw	a0,4(sp)
    135a:	c42e                	sw	a1,8(sp)
    135c:	87b2                	mv	a5,a2
    135e:	8736                	mv	a4,a3
    1360:	6305                	lui	t1,0x1
    1362:	cd81                	beqz	a1,137a <mini_vsnprintf+0x2a>
    1364:	c919                	beqz	a0,137a <mini_vsnprintf+0x2a>
    1366:	858a                	mv	a1,sp
    1368:	94230513          	addi	a0,t1,-1726 # 942 <_puts>
    136c:	3d29                	jal	1186 <mini_vpprintf>
    136e:	4512                	lw	a0,4(sp)
    1370:	4782                	lw	a5,0(sp)
    1372:	8d1d                	sub	a0,a0,a5
    1374:	0131                	addi	sp,sp,12
    1376:	c60ff06f          	j	7d6 <__riscv_restore_0>
    137a:	86ba                	mv	a3,a4
    137c:	863e                	mv	a2,a5
    137e:	4581                	li	a1,0
    1380:	94230513          	addi	a0,t1,-1726
    1384:	3509                	jal	1186 <mini_vpprintf>
    1386:	b7fd                	j	1374 <mini_vsnprintf+0x24>

00001388 <mini_snprintf>:
    1388:	1111                	addi	sp,sp,-28
    138a:	c836                	sw	a3,16(sp)
    138c:	0814                	addi	a3,sp,16
    138e:	c606                	sw	ra,12(sp)
    1390:	ca3a                	sw	a4,20(sp)
    1392:	cc3e                	sw	a5,24(sp)
    1394:	c036                	sw	a3,0(sp)
    1396:	3f6d                	jal	1350 <mini_vsnprintf>
    1398:	40b2                	lw	ra,12(sp)
    139a:	0171                	addi	sp,sp,28
    139c:	8082                	ret

0000139e <_ZL17updateinfolinelcdv>:
    139e:	c2eff2ef          	jal	t0,7cc <__riscv_save_0>
    13a2:	fe21d683          	lhu	a3,-30(gp) # 200003de <_ZL3wpm>
    13a6:	47a5                	li	a5,9
    13a8:	1131                	addi	sp,sp,-20
    13aa:	00d7e363          	bltu	a5,a3,13b0 <_ZL17updateinfolinelcdv+0x12>
    13ae:	4681                	li	a3,0
    13b0:	fe018783          	lb	a5,-32(gp) # 200003dc <_ZL2sw>
    13b4:	e3a5                	bnez	a5,1414 <_ZL17updateinfolinelcdv+0x76>
    13b6:	670d                	lui	a4,0x3
    13b8:	d7c70713          	addi	a4,a4,-644 # 2d7c <__clz_tab+0x100>
    13bc:	c6419603          	lh	a2,-924(gp) # 20000060 <_ZL5speed>
    13c0:	6791                	lui	a5,0x4
    13c2:	88878793          	addi	a5,a5,-1912 # 3888 <_ZL4tone>
    13c6:	060a                	slli	a2,a2,0x2
    13c8:	97b2                	add	a5,a5,a2
    13ca:	439c                	lw	a5,0(a5)
    13cc:	660d                	lui	a2,0x3
    13ce:	d8460613          	addi	a2,a2,-636 # 2d84 <__clz_tab+0x108>
    13d2:	45c5                	li	a1,17
    13d4:	850a                	mv	a0,sp
    13d6:	3f4d                	jal	1388 <mini_snprintf>
    13d8:	02800713          	li	a4,40
    13dc:	fce19f23          	sh	a4,-34(gp) # 200003da <_ZL9_cursor_x>
    13e0:	03500713          	li	a4,53
    13e4:	fce19e23          	sh	a4,-36(gp) # 200003d8 <_ZL9_cursor_y>
    13e8:	850a                	mv	a0,sp
    13ea:	47fd                	li	a5,31
    13ec:	4589                	li	a1,2
    13ee:	c6f19123          	sh	a5,-926(gp) # 2000005e <_ZL6_color>
    13f2:	98bff0ef          	jal	ra,d7c <_Z9tft_printPKch>
    13f6:	7e000713          	li	a4,2016
    13fa:	46c5                	li	a3,17
    13fc:	09f00613          	li	a2,159
    1400:	45c5                	li	a1,17
    1402:	4501                	li	a0,0
    1404:	a65ff0ef          	jal	ra,e68 <_Z13tft_draw_linesssst>
    1408:	57fd                	li	a5,-1
    140a:	c6f19123          	sh	a5,-926(gp) # 2000005e <_ZL6_color>
    140e:	0151                	addi	sp,sp,20
    1410:	bc6ff06f          	j	7d6 <__riscv_restore_0>
    1414:	670d                	lui	a4,0x3
    1416:	d8070713          	addi	a4,a4,-640 # 2d80 <__clz_tab+0x104>
    141a:	b74d                	j	13bc <_ZL17updateinfolinelcdv+0x1e>

0000141c <memset>:
    141c:	962a                	add	a2,a2,a0
    141e:	87aa                	mv	a5,a0
    1420:	00c79363          	bne	a5,a2,1426 <memset+0xa>
    1424:	8082                	ret
    1426:	a38c                	sb	a1,0(a5)
    1428:	0785                	addi	a5,a5,1
    142a:	bfdd                	j	1420 <memset+0x4>

0000142c <strcpy>:
    142c:	87aa                	mv	a5,a0
    142e:	00058703          	lb	a4,0(a1)
    1432:	a398                	sb	a4,0(a5)
    1434:	e311                	bnez	a4,1438 <strcpy+0xc>
    1436:	8082                	ret
    1438:	0585                	addi	a1,a1,1
    143a:	0785                	addi	a5,a5,1
    143c:	bfcd                	j	142e <strcpy+0x2>

0000143e <strcmp>:
    143e:	00050783          	lb	a5,0(a0)
    1442:	00058703          	lb	a4,0(a1)
    1446:	00e79363          	bne	a5,a4,144c <strcmp+0xe>
    144a:	eb81                	bnez	a5,145a <strcmp+0x1c>
    144c:	0ff7f793          	zext.b	a5,a5
    1450:	0ff77513          	zext.b	a0,a4
    1454:	40a78533          	sub	a0,a5,a0
    1458:	8082                	ret
    145a:	0505                	addi	a0,a0,1
    145c:	0585                	addi	a1,a1,1
    145e:	b7c5                	j	143e <strcmp>

00001460 <_Z6docodePcS_.constprop.0>:
    1460:	b6cff2ef          	jal	t0,7cc <__riscv_save_0>
    1464:	658d                	lui	a1,0x3
    1466:	d9058593          	addi	a1,a1,-624 # 2d90 <__clz_tab+0x114>
    146a:	e7c18513          	addi	a0,gp,-388 # 20000278 <_ZL4code>
    146e:	3fc1                	jal	143e <strcmp>
    1470:	e501                	bnez	a0,1478 <_Z6docodePcS_.constprop.0+0x18>
    1472:	4785                	li	a5,1
    1474:	fef18023          	sb	a5,-32(gp) # 200003dc <_ZL2sw>
    1478:	658d                	lui	a1,0x3
    147a:	d9858593          	addi	a1,a1,-616 # 2d98 <__clz_tab+0x11c>
    147e:	e7c18513          	addi	a0,gp,-388 # 20000278 <_ZL4code>
    1482:	3f75                	jal	143e <strcmp>
    1484:	e119                	bnez	a0,148a <_Z6docodePcS_.constprop.0+0x2a>
    1486:	fe018023          	sb	zero,-32(gp) # 200003dc <_ZL2sw>
    148a:	fe018703          	lb	a4,-32(gp) # 200003dc <_ZL2sw>
    148e:	40071b63          	bnez	a4,18a4 <_Z6docodePcS_.constprop.0+0x444>
    1492:	658d                	lui	a1,0x3
    1494:	da058593          	addi	a1,a1,-608 # 2da0 <__clz_tab+0x124>
    1498:	e7c18513          	addi	a0,gp,-388 # 20000278 <_ZL4code>
    149c:	374d                	jal	143e <strcmp>
    149e:	e909                	bnez	a0,14b0 <_Z6docodePcS_.constprop.0+0x50>
    14a0:	4785                	li	a5,1
    14a2:	fef18023          	sb	a5,-32(gp) # 200003dc <_ZL2sw>
    14a6:	02900793          	li	a5,41
    14aa:	853e                	mv	a0,a5
    14ac:	b2aff06f          	j	7d6 <__riscv_restore_0>
    14b0:	658d                	lui	a1,0x3
    14b2:	eb858593          	addi	a1,a1,-328 # 2eb8 <__clz_tab+0x23c>
    14b6:	e7c18513          	addi	a0,gp,-388 # 20000278 <_ZL4code>
    14ba:	3751                	jal	143e <strcmp>
    14bc:	04100793          	li	a5,65
    14c0:	d56d                	beqz	a0,14aa <_Z6docodePcS_.constprop.0+0x4a>
    14c2:	658d                	lui	a1,0x3
    14c4:	da858593          	addi	a1,a1,-600 # 2da8 <__clz_tab+0x12c>
    14c8:	e7c18513          	addi	a0,gp,-388 # 20000278 <_ZL4code>
    14cc:	3f8d                	jal	143e <strcmp>
    14ce:	04200793          	li	a5,66
    14d2:	dd61                	beqz	a0,14aa <_Z6docodePcS_.constprop.0+0x4a>
    14d4:	658d                	lui	a1,0x3
    14d6:	db058593          	addi	a1,a1,-592 # 2db0 <__clz_tab+0x134>
    14da:	e7c18513          	addi	a0,gp,-388 # 20000278 <_ZL4code>
    14de:	3785                	jal	143e <strcmp>
    14e0:	04300793          	li	a5,67
    14e4:	d179                	beqz	a0,14aa <_Z6docodePcS_.constprop.0+0x4a>
    14e6:	658d                	lui	a1,0x3
    14e8:	db858593          	addi	a1,a1,-584 # 2db8 <__clz_tab+0x13c>
    14ec:	e7c18513          	addi	a0,gp,-388 # 20000278 <_ZL4code>
    14f0:	37b9                	jal	143e <strcmp>
    14f2:	04400793          	li	a5,68
    14f6:	d955                	beqz	a0,14aa <_Z6docodePcS_.constprop.0+0x4a>
    14f8:	658d                	lui	a1,0x3
    14fa:	e6858593          	addi	a1,a1,-408 # 2e68 <__clz_tab+0x1ec>
    14fe:	e7c18513          	addi	a0,gp,-388 # 20000278 <_ZL4code>
    1502:	3f35                	jal	143e <strcmp>
    1504:	04500793          	li	a5,69
    1508:	d14d                	beqz	a0,14aa <_Z6docodePcS_.constprop.0+0x4a>
    150a:	658d                	lui	a1,0x3
    150c:	dbc58593          	addi	a1,a1,-580 # 2dbc <__clz_tab+0x140>
    1510:	e7c18513          	addi	a0,gp,-388 # 20000278 <_ZL4code>
    1514:	372d                	jal	143e <strcmp>
    1516:	04600793          	li	a5,70
    151a:	d941                	beqz	a0,14aa <_Z6docodePcS_.constprop.0+0x4a>
    151c:	658d                	lui	a1,0x3
    151e:	dc458593          	addi	a1,a1,-572 # 2dc4 <__clz_tab+0x148>
    1522:	e7c18513          	addi	a0,gp,-388 # 20000278 <_ZL4code>
    1526:	3f21                	jal	143e <strcmp>
    1528:	04700793          	li	a5,71
    152c:	dd3d                	beqz	a0,14aa <_Z6docodePcS_.constprop.0+0x4a>
    152e:	658d                	lui	a1,0x3
    1530:	dc858593          	addi	a1,a1,-568 # 2dc8 <__clz_tab+0x14c>
    1534:	e7c18513          	addi	a0,gp,-388 # 20000278 <_ZL4code>
    1538:	3719                	jal	143e <strcmp>
    153a:	04800793          	li	a5,72
    153e:	d535                	beqz	a0,14aa <_Z6docodePcS_.constprop.0+0x4a>
    1540:	658d                	lui	a1,0x3
    1542:	e7858593          	addi	a1,a1,-392 # 2e78 <__clz_tab+0x1fc>
    1546:	e7c18513          	addi	a0,gp,-388 # 20000278 <_ZL4code>
    154a:	3dd5                	jal	143e <strcmp>
    154c:	04900793          	li	a5,73
    1550:	dd29                	beqz	a0,14aa <_Z6docodePcS_.constprop.0+0x4a>
    1552:	658d                	lui	a1,0x3
    1554:	dd058593          	addi	a1,a1,-560 # 2dd0 <__clz_tab+0x154>
    1558:	e7c18513          	addi	a0,gp,-388 # 20000278 <_ZL4code>
    155c:	35cd                	jal	143e <strcmp>
    155e:	04a00793          	li	a5,74
    1562:	f40504e3          	beqz	a0,14aa <_Z6docodePcS_.constprop.0+0x4a>
    1566:	658d                	lui	a1,0x3
    1568:	dd858593          	addi	a1,a1,-552 # 2dd8 <__clz_tab+0x15c>
    156c:	e7c18513          	addi	a0,gp,-388 # 20000278 <_ZL4code>
    1570:	35f9                	jal	143e <strcmp>
    1572:	04b00793          	li	a5,75
    1576:	f2050ae3          	beqz	a0,14aa <_Z6docodePcS_.constprop.0+0x4a>
    157a:	658d                	lui	a1,0x3
    157c:	ddc58593          	addi	a1,a1,-548 # 2ddc <__clz_tab+0x160>
    1580:	e7c18513          	addi	a0,gp,-388 # 20000278 <_ZL4code>
    1584:	3d6d                	jal	143e <strcmp>
    1586:	04c00793          	li	a5,76
    158a:	f20500e3          	beqz	a0,14aa <_Z6docodePcS_.constprop.0+0x4a>
    158e:	658d                	lui	a1,0x3
    1590:	d9458593          	addi	a1,a1,-620 # 2d94 <__clz_tab+0x118>
    1594:	e7c18513          	addi	a0,gp,-388 # 20000278 <_ZL4code>
    1598:	355d                	jal	143e <strcmp>
    159a:	04d00793          	li	a5,77
    159e:	f00506e3          	beqz	a0,14aa <_Z6docodePcS_.constprop.0+0x4a>
    15a2:	658d                	lui	a1,0x3
    15a4:	e9858593          	addi	a1,a1,-360 # 2e98 <__clz_tab+0x21c>
    15a8:	e7c18513          	addi	a0,gp,-388 # 20000278 <_ZL4code>
    15ac:	3d49                	jal	143e <strcmp>
    15ae:	04e00793          	li	a5,78
    15b2:	ee050ce3          	beqz	a0,14aa <_Z6docodePcS_.constprop.0+0x4a>
    15b6:	658d                	lui	a1,0x3
    15b8:	de458593          	addi	a1,a1,-540 # 2de4 <__clz_tab+0x168>
    15bc:	e7c18513          	addi	a0,gp,-388 # 20000278 <_ZL4code>
    15c0:	3dbd                	jal	143e <strcmp>
    15c2:	04f00793          	li	a5,79
    15c6:	ee0502e3          	beqz	a0,14aa <_Z6docodePcS_.constprop.0+0x4a>
    15ca:	658d                	lui	a1,0x3
    15cc:	de858593          	addi	a1,a1,-536 # 2de8 <__clz_tab+0x16c>
    15d0:	e7c18513          	addi	a0,gp,-388 # 20000278 <_ZL4code>
    15d4:	35ad                	jal	143e <strcmp>
    15d6:	05000793          	li	a5,80
    15da:	ec0508e3          	beqz	a0,14aa <_Z6docodePcS_.constprop.0+0x4a>
    15de:	658d                	lui	a1,0x3
    15e0:	df058593          	addi	a1,a1,-528 # 2df0 <__clz_tab+0x174>
    15e4:	e7c18513          	addi	a0,gp,-388 # 20000278 <_ZL4code>
    15e8:	3d99                	jal	143e <strcmp>
    15ea:	05100793          	li	a5,81
    15ee:	ea050ee3          	beqz	a0,14aa <_Z6docodePcS_.constprop.0+0x4a>
    15f2:	658d                	lui	a1,0x3
    15f4:	df858593          	addi	a1,a1,-520 # 2df8 <__clz_tab+0x17c>
    15f8:	e7c18513          	addi	a0,gp,-388 # 20000278 <_ZL4code>
    15fc:	3589                	jal	143e <strcmp>
    15fe:	05200793          	li	a5,82
    1602:	ea0504e3          	beqz	a0,14aa <_Z6docodePcS_.constprop.0+0x4a>
    1606:	658d                	lui	a1,0x3
    1608:	dfc58593          	addi	a1,a1,-516 # 2dfc <__clz_tab+0x180>
    160c:	e7c18513          	addi	a0,gp,-388 # 20000278 <_ZL4code>
    1610:	353d                	jal	143e <strcmp>
    1612:	05300793          	li	a5,83
    1616:	e8050ae3          	beqz	a0,14aa <_Z6docodePcS_.constprop.0+0x4a>
    161a:	658d                	lui	a1,0x3
    161c:	e7058593          	addi	a1,a1,-400 # 2e70 <__clz_tab+0x1f4>
    1620:	e7c18513          	addi	a0,gp,-388 # 20000278 <_ZL4code>
    1624:	3d29                	jal	143e <strcmp>
    1626:	05400793          	li	a5,84
    162a:	e80500e3          	beqz	a0,14aa <_Z6docodePcS_.constprop.0+0x4a>
    162e:	658d                	lui	a1,0x3
    1630:	ec858593          	addi	a1,a1,-312 # 2ec8 <__clz_tab+0x24c>
    1634:	e7c18513          	addi	a0,gp,-388 # 20000278 <_ZL4code>
    1638:	3519                	jal	143e <strcmp>
    163a:	05500793          	li	a5,85
    163e:	e60506e3          	beqz	a0,14aa <_Z6docodePcS_.constprop.0+0x4a>
    1642:	658d                	lui	a1,0x3
    1644:	e0058593          	addi	a1,a1,-512 # 2e00 <__clz_tab+0x184>
    1648:	e7c18513          	addi	a0,gp,-388 # 20000278 <_ZL4code>
    164c:	3bcd                	jal	143e <strcmp>
    164e:	05600793          	li	a5,86
    1652:	e4050ce3          	beqz	a0,14aa <_Z6docodePcS_.constprop.0+0x4a>
    1656:	658d                	lui	a1,0x3
    1658:	e0858593          	addi	a1,a1,-504 # 2e08 <__clz_tab+0x18c>
    165c:	e7c18513          	addi	a0,gp,-388 # 20000278 <_ZL4code>
    1660:	3bf9                	jal	143e <strcmp>
    1662:	05700793          	li	a5,87
    1666:	e40502e3          	beqz	a0,14aa <_Z6docodePcS_.constprop.0+0x4a>
    166a:	658d                	lui	a1,0x3
    166c:	e0c58593          	addi	a1,a1,-500 # 2e0c <__clz_tab+0x190>
    1670:	e7c18513          	addi	a0,gp,-388 # 20000278 <_ZL4code>
    1674:	33e9                	jal	143e <strcmp>
    1676:	05800793          	li	a5,88
    167a:	e20508e3          	beqz	a0,14aa <_Z6docodePcS_.constprop.0+0x4a>
    167e:	658d                	lui	a1,0x3
    1680:	e1458593          	addi	a1,a1,-492 # 2e14 <__clz_tab+0x198>
    1684:	e7c18513          	addi	a0,gp,-388 # 20000278 <_ZL4code>
    1688:	3b5d                	jal	143e <strcmp>
    168a:	05900793          	li	a5,89
    168e:	e0050ee3          	beqz	a0,14aa <_Z6docodePcS_.constprop.0+0x4a>
    1692:	658d                	lui	a1,0x3
    1694:	e1c58593          	addi	a1,a1,-484 # 2e1c <__clz_tab+0x1a0>
    1698:	e7c18513          	addi	a0,gp,-388 # 20000278 <_ZL4code>
    169c:	334d                	jal	143e <strcmp>
    169e:	05a00793          	li	a5,90
    16a2:	e00504e3          	beqz	a0,14aa <_Z6docodePcS_.constprop.0+0x4a>
    16a6:	658d                	lui	a1,0x3
    16a8:	e2458593          	addi	a1,a1,-476 # 2e24 <__clz_tab+0x1a8>
    16ac:	e7c18513          	addi	a0,gp,-388 # 20000278 <_ZL4code>
    16b0:	3379                	jal	143e <strcmp>
    16b2:	03100793          	li	a5,49
    16b6:	de050ae3          	beqz	a0,14aa <_Z6docodePcS_.constprop.0+0x4a>
    16ba:	658d                	lui	a1,0x3
    16bc:	e2c58593          	addi	a1,a1,-468 # 2e2c <__clz_tab+0x1b0>
    16c0:	e7c18513          	addi	a0,gp,-388 # 20000278 <_ZL4code>
    16c4:	3bad                	jal	143e <strcmp>
    16c6:	03200793          	li	a5,50
    16ca:	de0500e3          	beqz	a0,14aa <_Z6docodePcS_.constprop.0+0x4a>
    16ce:	658d                	lui	a1,0x3
    16d0:	e3458593          	addi	a1,a1,-460 # 2e34 <__clz_tab+0x1b8>
    16d4:	e7c18513          	addi	a0,gp,-388 # 20000278 <_ZL4code>
    16d8:	339d                	jal	143e <strcmp>
    16da:	03300793          	li	a5,51
    16de:	dc0506e3          	beqz	a0,14aa <_Z6docodePcS_.constprop.0+0x4a>
    16e2:	658d                	lui	a1,0x3
    16e4:	e3c58593          	addi	a1,a1,-452 # 2e3c <__clz_tab+0x1c0>
    16e8:	e7c18513          	addi	a0,gp,-388 # 20000278 <_ZL4code>
    16ec:	3b89                	jal	143e <strcmp>
    16ee:	03400793          	li	a5,52
    16f2:	da050ce3          	beqz	a0,14aa <_Z6docodePcS_.constprop.0+0x4a>
    16f6:	658d                	lui	a1,0x3
    16f8:	e4458593          	addi	a1,a1,-444 # 2e44 <__clz_tab+0x1c8>
    16fc:	e7c18513          	addi	a0,gp,-388 # 20000278 <_ZL4code>
    1700:	3b3d                	jal	143e <strcmp>
    1702:	03500793          	li	a5,53
    1706:	da0502e3          	beqz	a0,14aa <_Z6docodePcS_.constprop.0+0x4a>
    170a:	658d                	lui	a1,0x3
    170c:	e4c58593          	addi	a1,a1,-436 # 2e4c <__clz_tab+0x1d0>
    1710:	e7c18513          	addi	a0,gp,-388 # 20000278 <_ZL4code>
    1714:	332d                	jal	143e <strcmp>
    1716:	03600793          	li	a5,54
    171a:	d80508e3          	beqz	a0,14aa <_Z6docodePcS_.constprop.0+0x4a>
    171e:	658d                	lui	a1,0x3
    1720:	e5458593          	addi	a1,a1,-428 # 2e54 <__clz_tab+0x1d8>
    1724:	e7c18513          	addi	a0,gp,-388 # 20000278 <_ZL4code>
    1728:	3b19                	jal	143e <strcmp>
    172a:	03700793          	li	a5,55
    172e:	d6050ee3          	beqz	a0,14aa <_Z6docodePcS_.constprop.0+0x4a>
    1732:	658d                	lui	a1,0x3
    1734:	e5c58593          	addi	a1,a1,-420 # 2e5c <__clz_tab+0x1e0>
    1738:	e7c18513          	addi	a0,gp,-388 # 20000278 <_ZL4code>
    173c:	3309                	jal	143e <strcmp>
    173e:	03800793          	li	a5,56
    1742:	d60504e3          	beqz	a0,14aa <_Z6docodePcS_.constprop.0+0x4a>
    1746:	658d                	lui	a1,0x3
    1748:	e6458593          	addi	a1,a1,-412 # 2e64 <__clz_tab+0x1e8>
    174c:	e7c18513          	addi	a0,gp,-388 # 20000278 <_ZL4code>
    1750:	31fd                	jal	143e <strcmp>
    1752:	03900793          	li	a5,57
    1756:	d4050ae3          	beqz	a0,14aa <_Z6docodePcS_.constprop.0+0x4a>
    175a:	658d                	lui	a1,0x3
    175c:	e6c58593          	addi	a1,a1,-404 # 2e6c <__clz_tab+0x1f0>
    1760:	e7c18513          	addi	a0,gp,-388 # 20000278 <_ZL4code>
    1764:	39e9                	jal	143e <strcmp>
    1766:	03000793          	li	a5,48
    176a:	d40500e3          	beqz	a0,14aa <_Z6docodePcS_.constprop.0+0x4a>
    176e:	658d                	lui	a1,0x3
    1770:	e7458593          	addi	a1,a1,-396 # 2e74 <__clz_tab+0x1f8>
    1774:	e7c18513          	addi	a0,gp,-388 # 20000278 <_ZL4code>
    1778:	31d9                	jal	143e <strcmp>
    177a:	03f00793          	li	a5,63
    177e:	d20506e3          	beqz	a0,14aa <_Z6docodePcS_.constprop.0+0x4a>
    1782:	658d                	lui	a1,0x3
    1784:	e7c58593          	addi	a1,a1,-388 # 2e7c <__clz_tab+0x200>
    1788:	e7c18513          	addi	a0,gp,-388 # 20000278 <_ZL4code>
    178c:	394d                	jal	143e <strcmp>
    178e:	02e00793          	li	a5,46
    1792:	d0050ce3          	beqz	a0,14aa <_Z6docodePcS_.constprop.0+0x4a>
    1796:	658d                	lui	a1,0x3
    1798:	e8458593          	addi	a1,a1,-380 # 2e84 <__clz_tab+0x208>
    179c:	e7c18513          	addi	a0,gp,-388 # 20000278 <_ZL4code>
    17a0:	3979                	jal	143e <strcmp>
    17a2:	02c00793          	li	a5,44
    17a6:	d00502e3          	beqz	a0,14aa <_Z6docodePcS_.constprop.0+0x4a>
    17aa:	658d                	lui	a1,0x3
    17ac:	e8c58593          	addi	a1,a1,-372 # 2e8c <__clz_tab+0x210>
    17b0:	e7c18513          	addi	a0,gp,-388 # 20000278 <_ZL4code>
    17b4:	3169                	jal	143e <strcmp>
    17b6:	02100793          	li	a5,33
    17ba:	ce0508e3          	beqz	a0,14aa <_Z6docodePcS_.constprop.0+0x4a>
    17be:	658d                	lui	a1,0x3
    17c0:	e9458593          	addi	a1,a1,-364 # 2e94 <__clz_tab+0x218>
    17c4:	e7c18513          	addi	a0,gp,-388 # 20000278 <_ZL4code>
    17c8:	399d                	jal	143e <strcmp>
    17ca:	04000793          	li	a5,64
    17ce:	cc050ee3          	beqz	a0,14aa <_Z6docodePcS_.constprop.0+0x4a>
    17d2:	658d                	lui	a1,0x3
    17d4:	e9c58593          	addi	a1,a1,-356 # 2e9c <__clz_tab+0x220>
    17d8:	e7c18513          	addi	a0,gp,-388 # 20000278 <_ZL4code>
    17dc:	318d                	jal	143e <strcmp>
    17de:	03a00793          	li	a5,58
    17e2:	cc0504e3          	beqz	a0,14aa <_Z6docodePcS_.constprop.0+0x4a>
    17e6:	658d                	lui	a1,0x3
    17e8:	ea458593          	addi	a1,a1,-348 # 2ea4 <__clz_tab+0x228>
    17ec:	e7c18513          	addi	a0,gp,-388 # 20000278 <_ZL4code>
    17f0:	31b9                	jal	143e <strcmp>
    17f2:	02d00793          	li	a5,45
    17f6:	ca050ae3          	beqz	a0,14aa <_Z6docodePcS_.constprop.0+0x4a>
    17fa:	658d                	lui	a1,0x3
    17fc:	eac58593          	addi	a1,a1,-340 # 2eac <__clz_tab+0x230>
    1800:	e7c18513          	addi	a0,gp,-388 # 20000278 <_ZL4code>
    1804:	392d                	jal	143e <strcmp>
    1806:	02f00793          	li	a5,47
    180a:	ca0500e3          	beqz	a0,14aa <_Z6docodePcS_.constprop.0+0x4a>
    180e:	658d                	lui	a1,0x3
    1810:	eb458593          	addi	a1,a1,-332 # 2eb4 <__clz_tab+0x238>
    1814:	e7c18513          	addi	a0,gp,-388 # 20000278 <_ZL4code>
    1818:	311d                	jal	143e <strcmp>
    181a:	c80506e3          	beqz	a0,14a6 <_Z6docodePcS_.constprop.0+0x46>
    181e:	658d                	lui	a1,0x3
    1820:	ebc58593          	addi	a1,a1,-324 # 2ebc <__clz_tab+0x240>
    1824:	e7c18513          	addi	a0,gp,-388 # 20000278 <_ZL4code>
    1828:	3919                	jal	143e <strcmp>
    182a:	05f00793          	li	a5,95
    182e:	c6050ee3          	beqz	a0,14aa <_Z6docodePcS_.constprop.0+0x4a>
    1832:	658d                	lui	a1,0x3
    1834:	ec458593          	addi	a1,a1,-316 # 2ec4 <__clz_tab+0x248>
    1838:	e7c18513          	addi	a0,gp,-388 # 20000278 <_ZL4code>
    183c:	3109                	jal	143e <strcmp>
    183e:	02400793          	li	a5,36
    1842:	c60504e3          	beqz	a0,14aa <_Z6docodePcS_.constprop.0+0x4a>
    1846:	658d                	lui	a1,0x3
    1848:	d9858593          	addi	a1,a1,-616 # 2d98 <__clz_tab+0x11c>
    184c:	e7c18513          	addi	a0,gp,-388 # 20000278 <_ZL4code>
    1850:	36fd                	jal	143e <strcmp>
    1852:	07e00793          	li	a5,126
    1856:	c4050ae3          	beqz	a0,14aa <_Z6docodePcS_.constprop.0+0x4a>
    185a:	658d                	lui	a1,0x3
    185c:	ecc58593          	addi	a1,a1,-308 # 2ecc <__clz_tab+0x250>
    1860:	e7c18513          	addi	a0,gp,-388 # 20000278 <_ZL4code>
    1864:	3ee9                	jal	143e <strcmp>
    1866:	4785                	li	a5,1
    1868:	c40501e3          	beqz	a0,14aa <_Z6docodePcS_.constprop.0+0x4a>
    186c:	658d                	lui	a1,0x3
    186e:	ed458593          	addi	a1,a1,-300 # 2ed4 <__clz_tab+0x258>
    1872:	e7c18513          	addi	a0,gp,-388 # 20000278 <_ZL4code>
    1876:	36e1                	jal	143e <strcmp>
    1878:	4789                	li	a5,2
    187a:	c20508e3          	beqz	a0,14aa <_Z6docodePcS_.constprop.0+0x4a>
    187e:	658d                	lui	a1,0x3
    1880:	edc58593          	addi	a1,a1,-292 # 2edc <__clz_tab+0x260>
    1884:	e7c18513          	addi	a0,gp,-388 # 20000278 <_ZL4code>
    1888:	3e5d                	jal	143e <strcmp>
    188a:	478d                	li	a5,3
    188c:	c0050fe3          	beqz	a0,14aa <_Z6docodePcS_.constprop.0+0x4a>
    1890:	658d                	lui	a1,0x3
    1892:	ee458593          	addi	a1,a1,-284 # 2ee4 <__clz_tab+0x268>
    1896:	e7c18513          	addi	a0,gp,-388 # 20000278 <_ZL4code>
    189a:	3655                	jal	143e <strcmp>
    189c:	00153793          	seqz	a5,a0
    18a0:	078a                	slli	a5,a5,0x2
    18a2:	b121                	j	14aa <_Z6docodePcS_.constprop.0+0x4a>
    18a4:	4685                	li	a3,1
    18a6:	4781                	li	a5,0
    18a8:	c0d711e3          	bne	a4,a3,14aa <_Z6docodePcS_.constprop.0+0x4a>
    18ac:	658d                	lui	a1,0x3
    18ae:	eb458593          	addi	a1,a1,-332 # 2eb4 <__clz_tab+0x238>
    18b2:	e7c18513          	addi	a0,gp,-388 # 20000278 <_ZL4code>
    18b6:	3661                	jal	143e <strcmp>
    18b8:	e511                	bnez	a0,18c4 <_Z6docodePcS_.constprop.0+0x464>
    18ba:	fe018023          	sb	zero,-32(gp) # 200003dc <_ZL2sw>
    18be:	02800793          	li	a5,40
    18c2:	b6e5                	j	14aa <_Z6docodePcS_.constprop.0+0x4a>
    18c4:	658d                	lui	a1,0x3
    18c6:	eec58593          	addi	a1,a1,-276 # 2eec <__clz_tab+0x270>
    18ca:	e7c18513          	addi	a0,gp,-388 # 20000278 <_ZL4code>
    18ce:	3e85                	jal	143e <strcmp>
    18d0:	0b100793          	li	a5,177
    18d4:	bc050be3          	beqz	a0,14aa <_Z6docodePcS_.constprop.0+0x4a>
    18d8:	658d                	lui	a1,0x3
    18da:	eb858593          	addi	a1,a1,-328 # 2eb8 <__clz_tab+0x23c>
    18de:	e7c18513          	addi	a0,gp,-388 # 20000278 <_ZL4code>
    18e2:	3eb1                	jal	143e <strcmp>
    18e4:	0b200793          	li	a5,178
    18e8:	bc0501e3          	beqz	a0,14aa <_Z6docodePcS_.constprop.0+0x4a>
    18ec:	658d                	lui	a1,0x3
    18ee:	ec858593          	addi	a1,a1,-312 # 2ec8 <__clz_tab+0x24c>
    18f2:	e7c18513          	addi	a0,gp,-388 # 20000278 <_ZL4code>
    18f6:	36a1                	jal	143e <strcmp>
    18f8:	0b300793          	li	a5,179
    18fc:	ba0507e3          	beqz	a0,14aa <_Z6docodePcS_.constprop.0+0x4a>
    1900:	658d                	lui	a1,0x3
    1902:	ef458593          	addi	a1,a1,-268 # 2ef4 <__clz_tab+0x278>
    1906:	e7c18513          	addi	a0,gp,-388 # 20000278 <_ZL4code>
    190a:	3e15                	jal	143e <strcmp>
    190c:	0b400793          	li	a5,180
    1910:	b8050de3          	beqz	a0,14aa <_Z6docodePcS_.constprop.0+0x4a>
    1914:	658d                	lui	a1,0x3
    1916:	ebc58593          	addi	a1,a1,-324 # 2ebc <__clz_tab+0x240>
    191a:	e7c18513          	addi	a0,gp,-388 # 20000278 <_ZL4code>
    191e:	3605                	jal	143e <strcmp>
    1920:	0b500793          	li	a5,181
    1924:	b80503e3          	beqz	a0,14aa <_Z6docodePcS_.constprop.0+0x4a>
    1928:	658d                	lui	a1,0x3
    192a:	ddc58593          	addi	a1,a1,-548 # 2ddc <__clz_tab+0x160>
    192e:	e7c18513          	addi	a0,gp,-388 # 20000278 <_ZL4code>
    1932:	3631                	jal	143e <strcmp>
    1934:	0b600793          	li	a5,182
    1938:	b60509e3          	beqz	a0,14aa <_Z6docodePcS_.constprop.0+0x4a>
    193c:	658d                	lui	a1,0x3
    193e:	efc58593          	addi	a1,a1,-260 # 2efc <__clz_tab+0x280>
    1942:	e7c18513          	addi	a0,gp,-388 # 20000278 <_ZL4code>
    1946:	3ce5                	jal	143e <strcmp>
    1948:	0b700793          	li	a5,183
    194c:	b4050fe3          	beqz	a0,14aa <_Z6docodePcS_.constprop.0+0x4a>
    1950:	658d                	lui	a1,0x3
    1952:	e0058593          	addi	a1,a1,-512 # 2e00 <__clz_tab+0x184>
    1956:	e7c18513          	addi	a0,gp,-388 # 20000278 <_ZL4code>
    195a:	34d5                	jal	143e <strcmp>
    195c:	0b800793          	li	a5,184
    1960:	b40505e3          	beqz	a0,14aa <_Z6docodePcS_.constprop.0+0x4a>
    1964:	658d                	lui	a1,0x3
    1966:	e1458593          	addi	a1,a1,-492 # 2e14 <__clz_tab+0x198>
    196a:	e7c18513          	addi	a0,gp,-388 # 20000278 <_ZL4code>
    196e:	3cc1                	jal	143e <strcmp>
    1970:	0b900793          	li	a5,185
    1974:	b2050be3          	beqz	a0,14aa <_Z6docodePcS_.constprop.0+0x4a>
    1978:	658d                	lui	a1,0x3
    197a:	f0458593          	addi	a1,a1,-252 # 2f04 <__clz_tab+0x288>
    197e:	e7c18513          	addi	a0,gp,-388 # 20000278 <_ZL4code>
    1982:	abdff0ef          	jal	ra,143e <strcmp>
    1986:	0ba00793          	li	a5,186
    198a:	b20500e3          	beqz	a0,14aa <_Z6docodePcS_.constprop.0+0x4a>
    198e:	658d                	lui	a1,0x3
    1990:	f0c58593          	addi	a1,a1,-244 # 2f0c <__clz_tab+0x290>
    1994:	e7c18513          	addi	a0,gp,-388 # 20000278 <_ZL4code>
    1998:	aa7ff0ef          	jal	ra,143e <strcmp>
    199c:	0bb00793          	li	a5,187
    19a0:	b00505e3          	beqz	a0,14aa <_Z6docodePcS_.constprop.0+0x4a>
    19a4:	658d                	lui	a1,0x3
    19a6:	f1458593          	addi	a1,a1,-236 # 2f14 <__clz_tab+0x298>
    19aa:	e7c18513          	addi	a0,gp,-388 # 20000278 <_ZL4code>
    19ae:	a91ff0ef          	jal	ra,143e <strcmp>
    19b2:	0bc00793          	li	a5,188
    19b6:	ae050ae3          	beqz	a0,14aa <_Z6docodePcS_.constprop.0+0x4a>
    19ba:	658d                	lui	a1,0x3
    19bc:	f1c58593          	addi	a1,a1,-228 # 2f1c <__clz_tab+0x2a0>
    19c0:	e7c18513          	addi	a0,gp,-388 # 20000278 <_ZL4code>
    19c4:	a7bff0ef          	jal	ra,143e <strcmp>
    19c8:	0bd00793          	li	a5,189
    19cc:	ac050fe3          	beqz	a0,14aa <_Z6docodePcS_.constprop.0+0x4a>
    19d0:	658d                	lui	a1,0x3
    19d2:	f2458593          	addi	a1,a1,-220 # 2f24 <__clz_tab+0x2a8>
    19d6:	e7c18513          	addi	a0,gp,-388 # 20000278 <_ZL4code>
    19da:	a65ff0ef          	jal	ra,143e <strcmp>
    19de:	0be00793          	li	a5,190
    19e2:	ac0504e3          	beqz	a0,14aa <_Z6docodePcS_.constprop.0+0x4a>
    19e6:	658d                	lui	a1,0x3
    19e8:	f2c58593          	addi	a1,a1,-212 # 2f2c <__clz_tab+0x2b0>
    19ec:	e7c18513          	addi	a0,gp,-388 # 20000278 <_ZL4code>
    19f0:	a4fff0ef          	jal	ra,143e <strcmp>
    19f4:	0bf00793          	li	a5,191
    19f8:	aa0509e3          	beqz	a0,14aa <_Z6docodePcS_.constprop.0+0x4a>
    19fc:	658d                	lui	a1,0x3
    19fe:	e9858593          	addi	a1,a1,-360 # 2e98 <__clz_tab+0x21c>
    1a02:	e7c18513          	addi	a0,gp,-388 # 20000278 <_ZL4code>
    1a06:	a39ff0ef          	jal	ra,143e <strcmp>
    1a0a:	0c000793          	li	a5,192
    1a0e:	a8050ee3          	beqz	a0,14aa <_Z6docodePcS_.constprop.0+0x4a>
    1a12:	658d                	lui	a1,0x3
    1a14:	dbc58593          	addi	a1,a1,-580 # 2dbc <__clz_tab+0x140>
    1a18:	e7c18513          	addi	a0,gp,-388 # 20000278 <_ZL4code>
    1a1c:	a23ff0ef          	jal	ra,143e <strcmp>
    1a20:	0c100793          	li	a5,193
    1a24:	a80503e3          	beqz	a0,14aa <_Z6docodePcS_.constprop.0+0x4a>
    1a28:	658d                	lui	a1,0x3
    1a2a:	de858593          	addi	a1,a1,-536 # 2de8 <__clz_tab+0x16c>
    1a2e:	e7c18513          	addi	a0,gp,-388 # 20000278 <_ZL4code>
    1a32:	a0dff0ef          	jal	ra,143e <strcmp>
    1a36:	0c200793          	li	a5,194
    1a3a:	a60508e3          	beqz	a0,14aa <_Z6docodePcS_.constprop.0+0x4a>
    1a3e:	658d                	lui	a1,0x3
    1a40:	f3458593          	addi	a1,a1,-204 # 2f34 <__clz_tab+0x2b8>
    1a44:	e7c18513          	addi	a0,gp,-388 # 20000278 <_ZL4code>
    1a48:	9f7ff0ef          	jal	ra,143e <strcmp>
    1a4c:	0c300793          	li	a5,195
    1a50:	a4050de3          	beqz	a0,14aa <_Z6docodePcS_.constprop.0+0x4a>
    1a54:	658d                	lui	a1,0x3
    1a56:	f3c58593          	addi	a1,a1,-196 # 2f3c <__clz_tab+0x2c0>
    1a5a:	e7c18513          	addi	a0,gp,-388 # 20000278 <_ZL4code>
    1a5e:	9e1ff0ef          	jal	ra,143e <strcmp>
    1a62:	0c400793          	li	a5,196
    1a66:	a40502e3          	beqz	a0,14aa <_Z6docodePcS_.constprop.0+0x4a>
    1a6a:	658d                	lui	a1,0x3
    1a6c:	df858593          	addi	a1,a1,-520 # 2df8 <__clz_tab+0x17c>
    1a70:	e7c18513          	addi	a0,gp,-388 # 20000278 <_ZL4code>
    1a74:	9cbff0ef          	jal	ra,143e <strcmp>
    1a78:	0c500793          	li	a5,197
    1a7c:	a20507e3          	beqz	a0,14aa <_Z6docodePcS_.constprop.0+0x4a>
    1a80:	658d                	lui	a1,0x3
    1a82:	db058593          	addi	a1,a1,-592 # 2db0 <__clz_tab+0x134>
    1a86:	e7c18513          	addi	a0,gp,-388 # 20000278 <_ZL4code>
    1a8a:	9b5ff0ef          	jal	ra,143e <strcmp>
    1a8e:	0c600793          	li	a5,198
    1a92:	a0050ce3          	beqz	a0,14aa <_Z6docodePcS_.constprop.0+0x4a>
    1a96:	658d                	lui	a1,0x3
    1a98:	dc858593          	addi	a1,a1,-568 # 2dc8 <__clz_tab+0x14c>
    1a9c:	e7c18513          	addi	a0,gp,-388 # 20000278 <_ZL4code>
    1aa0:	99fff0ef          	jal	ra,143e <strcmp>
    1aa4:	0c700793          	li	a5,199
    1aa8:	a00501e3          	beqz	a0,14aa <_Z6docodePcS_.constprop.0+0x4a>
    1aac:	658d                	lui	a1,0x3
    1aae:	df058593          	addi	a1,a1,-528 # 2df0 <__clz_tab+0x174>
    1ab2:	e7c18513          	addi	a0,gp,-388 # 20000278 <_ZL4code>
    1ab6:	989ff0ef          	jal	ra,143e <strcmp>
    1aba:	0c800793          	li	a5,200
    1abe:	9e0506e3          	beqz	a0,14aa <_Z6docodePcS_.constprop.0+0x4a>
    1ac2:	658d                	lui	a1,0x3
    1ac4:	f4458593          	addi	a1,a1,-188 # 2f44 <__clz_tab+0x2c8>
    1ac8:	e7c18513          	addi	a0,gp,-388 # 20000278 <_ZL4code>
    1acc:	973ff0ef          	jal	ra,143e <strcmp>
    1ad0:	0c900793          	li	a5,201
    1ad4:	9c050be3          	beqz	a0,14aa <_Z6docodePcS_.constprop.0+0x4a>
    1ad8:	658d                	lui	a1,0x3
    1ada:	da858593          	addi	a1,a1,-600 # 2da8 <__clz_tab+0x12c>
    1ade:	e7c18513          	addi	a0,gp,-388 # 20000278 <_ZL4code>
    1ae2:	95dff0ef          	jal	ra,143e <strcmp>
    1ae6:	0ca00793          	li	a5,202
    1aea:	9c0500e3          	beqz	a0,14aa <_Z6docodePcS_.constprop.0+0x4a>
    1aee:	658d                	lui	a1,0x3
    1af0:	f4c58593          	addi	a1,a1,-180 # 2f4c <__clz_tab+0x2d0>
    1af4:	e7c18513          	addi	a0,gp,-388 # 20000278 <_ZL4code>
    1af8:	947ff0ef          	jal	ra,143e <strcmp>
    1afc:	0cb00793          	li	a5,203
    1b00:	9a0505e3          	beqz	a0,14aa <_Z6docodePcS_.constprop.0+0x4a>
    1b04:	658d                	lui	a1,0x3
    1b06:	e1c58593          	addi	a1,a1,-484 # 2e1c <__clz_tab+0x1a0>
    1b0a:	e7c18513          	addi	a0,gp,-388 # 20000278 <_ZL4code>
    1b0e:	931ff0ef          	jal	ra,143e <strcmp>
    1b12:	0cc00793          	li	a5,204
    1b16:	98050ae3          	beqz	a0,14aa <_Z6docodePcS_.constprop.0+0x4a>
    1b1a:	658d                	lui	a1,0x3
    1b1c:	e6858593          	addi	a1,a1,-408 # 2e68 <__clz_tab+0x1ec>
    1b20:	e7c18513          	addi	a0,gp,-388 # 20000278 <_ZL4code>
    1b24:	91bff0ef          	jal	ra,143e <strcmp>
    1b28:	0cd00793          	li	a5,205
    1b2c:	96050fe3          	beqz	a0,14aa <_Z6docodePcS_.constprop.0+0x4a>
    1b30:	658d                	lui	a1,0x3
    1b32:	db858593          	addi	a1,a1,-584 # 2db8 <__clz_tab+0x13c>
    1b36:	e7c18513          	addi	a0,gp,-388 # 20000278 <_ZL4code>
    1b3a:	905ff0ef          	jal	ra,143e <strcmp>
    1b3e:	0ce00793          	li	a5,206
    1b42:	960504e3          	beqz	a0,14aa <_Z6docodePcS_.constprop.0+0x4a>
    1b46:	658d                	lui	a1,0x3
    1b48:	e0c58593          	addi	a1,a1,-500 # 2e0c <__clz_tab+0x190>
    1b4c:	e7c18513          	addi	a0,gp,-388 # 20000278 <_ZL4code>
    1b50:	8efff0ef          	jal	ra,143e <strcmp>
    1b54:	0cf00793          	li	a5,207
    1b58:	940509e3          	beqz	a0,14aa <_Z6docodePcS_.constprop.0+0x4a>
    1b5c:	658d                	lui	a1,0x3
    1b5e:	f5458593          	addi	a1,a1,-172 # 2f54 <__clz_tab+0x2d8>
    1b62:	e7c18513          	addi	a0,gp,-388 # 20000278 <_ZL4code>
    1b66:	8d9ff0ef          	jal	ra,143e <strcmp>
    1b6a:	0d000793          	li	a5,208
    1b6e:	92050ee3          	beqz	a0,14aa <_Z6docodePcS_.constprop.0+0x4a>
    1b72:	658d                	lui	a1,0x3
    1b74:	e7058593          	addi	a1,a1,-400 # 2e70 <__clz_tab+0x1f4>
    1b78:	e7c18513          	addi	a0,gp,-388 # 20000278 <_ZL4code>
    1b7c:	8c3ff0ef          	jal	ra,143e <strcmp>
    1b80:	0d100793          	li	a5,209
    1b84:	920503e3          	beqz	a0,14aa <_Z6docodePcS_.constprop.0+0x4a>
    1b88:	658d                	lui	a1,0x3
    1b8a:	edc58593          	addi	a1,a1,-292 # 2edc <__clz_tab+0x260>
    1b8e:	e7c18513          	addi	a0,gp,-388 # 20000278 <_ZL4code>
    1b92:	8adff0ef          	jal	ra,143e <strcmp>
    1b96:	0d200793          	li	a5,210
    1b9a:	900508e3          	beqz	a0,14aa <_Z6docodePcS_.constprop.0+0x4a>
    1b9e:	658d                	lui	a1,0x3
    1ba0:	eac58593          	addi	a1,a1,-340 # 2eac <__clz_tab+0x230>
    1ba4:	e7c18513          	addi	a0,gp,-388 # 20000278 <_ZL4code>
    1ba8:	897ff0ef          	jal	ra,143e <strcmp>
    1bac:	0d300793          	li	a5,211
    1bb0:	8e050de3          	beqz	a0,14aa <_Z6docodePcS_.constprop.0+0x4a>
    1bb4:	658d                	lui	a1,0x3
    1bb6:	e0858593          	addi	a1,a1,-504 # 2e08 <__clz_tab+0x18c>
    1bba:	e7c18513          	addi	a0,gp,-388 # 20000278 <_ZL4code>
    1bbe:	881ff0ef          	jal	ra,143e <strcmp>
    1bc2:	0d400793          	li	a5,212
    1bc6:	8e0502e3          	beqz	a0,14aa <_Z6docodePcS_.constprop.0+0x4a>
    1bca:	658d                	lui	a1,0x3
    1bcc:	f5c58593          	addi	a1,a1,-164 # 2f5c <__clz_tab+0x2e0>
    1bd0:	e7c18513          	addi	a0,gp,-388 # 20000278 <_ZL4code>
    1bd4:	86bff0ef          	jal	ra,143e <strcmp>
    1bd8:	0d500793          	li	a5,213
    1bdc:	8c0507e3          	beqz	a0,14aa <_Z6docodePcS_.constprop.0+0x4a>
    1be0:	658d                	lui	a1,0x3
    1be2:	d9458593          	addi	a1,a1,-620 # 2d94 <__clz_tab+0x118>
    1be6:	e7c18513          	addi	a0,gp,-388 # 20000278 <_ZL4code>
    1bea:	855ff0ef          	jal	ra,143e <strcmp>
    1bee:	0d600793          	li	a5,214
    1bf2:	8a050ce3          	beqz	a0,14aa <_Z6docodePcS_.constprop.0+0x4a>
    1bf6:	658d                	lui	a1,0x3
    1bf8:	dfc58593          	addi	a1,a1,-516 # 2dfc <__clz_tab+0x180>
    1bfc:	e7c18513          	addi	a0,gp,-388 # 20000278 <_ZL4code>
    1c00:	83fff0ef          	jal	ra,143e <strcmp>
    1c04:	0d700793          	li	a5,215
    1c08:	8a0501e3          	beqz	a0,14aa <_Z6docodePcS_.constprop.0+0x4a>
    1c0c:	658d                	lui	a1,0x3
    1c0e:	dc458593          	addi	a1,a1,-572 # 2dc4 <__clz_tab+0x148>
    1c12:	e7c18513          	addi	a0,gp,-388 # 20000278 <_ZL4code>
    1c16:	829ff0ef          	jal	ra,143e <strcmp>
    1c1a:	0d800793          	li	a5,216
    1c1e:	880506e3          	beqz	a0,14aa <_Z6docodePcS_.constprop.0+0x4a>
    1c22:	658d                	lui	a1,0x3
    1c24:	ed458593          	addi	a1,a1,-300 # 2ed4 <__clz_tab+0x258>
    1c28:	e7c18513          	addi	a0,gp,-388 # 20000278 <_ZL4code>
    1c2c:	813ff0ef          	jal	ra,143e <strcmp>
    1c30:	0d900793          	li	a5,217
    1c34:	86050be3          	beqz	a0,14aa <_Z6docodePcS_.constprop.0+0x4a>
    1c38:	658d                	lui	a1,0x3
    1c3a:	de458593          	addi	a1,a1,-540 # 2de4 <__clz_tab+0x168>
    1c3e:	e7c18513          	addi	a0,gp,-388 # 20000278 <_ZL4code>
    1c42:	ffcff0ef          	jal	ra,143e <strcmp>
    1c46:	0da00793          	li	a5,218
    1c4a:	860500e3          	beqz	a0,14aa <_Z6docodePcS_.constprop.0+0x4a>
    1c4e:	658d                	lui	a1,0x3
    1c50:	f6458593          	addi	a1,a1,-156 # 2f64 <__clz_tab+0x2e8>
    1c54:	e7c18513          	addi	a0,gp,-388 # 20000278 <_ZL4code>
    1c58:	fe6ff0ef          	jal	ra,143e <strcmp>
    1c5c:	0db00793          	li	a5,219
    1c60:	840505e3          	beqz	a0,14aa <_Z6docodePcS_.constprop.0+0x4a>
    1c64:	658d                	lui	a1,0x3
    1c66:	dd858593          	addi	a1,a1,-552 # 2dd8 <__clz_tab+0x15c>
    1c6a:	e7c18513          	addi	a0,gp,-388 # 20000278 <_ZL4code>
    1c6e:	fd0ff0ef          	jal	ra,143e <strcmp>
    1c72:	0dc00793          	li	a5,220
    1c76:	82050ae3          	beqz	a0,14aa <_Z6docodePcS_.constprop.0+0x4a>
    1c7a:	658d                	lui	a1,0x3
    1c7c:	ecc58593          	addi	a1,a1,-308 # 2ecc <__clz_tab+0x250>
    1c80:	e7c18513          	addi	a0,gp,-388 # 20000278 <_ZL4code>
    1c84:	fbaff0ef          	jal	ra,143e <strcmp>
    1c88:	0dd00793          	li	a5,221
    1c8c:	80050fe3          	beqz	a0,14aa <_Z6docodePcS_.constprop.0+0x4a>
    1c90:	658d                	lui	a1,0x3
    1c92:	e7858593          	addi	a1,a1,-392 # 2e78 <__clz_tab+0x1fc>
    1c96:	e7c18513          	addi	a0,gp,-388 # 20000278 <_ZL4code>
    1c9a:	fa4ff0ef          	jal	ra,143e <strcmp>
    1c9e:	0de00793          	li	a5,222
    1ca2:	800504e3          	beqz	a0,14aa <_Z6docodePcS_.constprop.0+0x4a>
    1ca6:	658d                	lui	a1,0x3
    1ca8:	f6c58593          	addi	a1,a1,-148 # 2f6c <__clz_tab+0x2f0>
    1cac:	e7c18513          	addi	a0,gp,-388 # 20000278 <_ZL4code>
    1cb0:	f8eff0ef          	jal	ra,143e <strcmp>
    1cb4:	0df00793          	li	a5,223
    1cb8:	fe050963          	beqz	a0,14aa <_Z6docodePcS_.constprop.0+0x4a>
    1cbc:	658d                	lui	a1,0x3
    1cbe:	dd058593          	addi	a1,a1,-560 # 2dd0 <__clz_tab+0x154>
    1cc2:	e7c18513          	addi	a0,gp,-388 # 20000278 <_ZL4code>
    1cc6:	f78ff0ef          	jal	ra,143e <strcmp>
    1cca:	0a600793          	li	a5,166
    1cce:	fc050e63          	beqz	a0,14aa <_Z6docodePcS_.constprop.0+0x4a>
    1cd2:	658d                	lui	a1,0x3
    1cd4:	e2458593          	addi	a1,a1,-476 # 2e24 <__clz_tab+0x1a8>
    1cd8:	e7c18513          	addi	a0,gp,-388 # 20000278 <_ZL4code>
    1cdc:	f62ff0ef          	jal	ra,143e <strcmp>
    1ce0:	03100793          	li	a5,49
    1ce4:	fc050363          	beqz	a0,14aa <_Z6docodePcS_.constprop.0+0x4a>
    1ce8:	658d                	lui	a1,0x3
    1cea:	e2c58593          	addi	a1,a1,-468 # 2e2c <__clz_tab+0x1b0>
    1cee:	e7c18513          	addi	a0,gp,-388 # 20000278 <_ZL4code>
    1cf2:	f4cff0ef          	jal	ra,143e <strcmp>
    1cf6:	03200793          	li	a5,50
    1cfa:	fa050863          	beqz	a0,14aa <_Z6docodePcS_.constprop.0+0x4a>
    1cfe:	658d                	lui	a1,0x3
    1d00:	e3458593          	addi	a1,a1,-460 # 2e34 <__clz_tab+0x1b8>
    1d04:	e7c18513          	addi	a0,gp,-388 # 20000278 <_ZL4code>
    1d08:	f36ff0ef          	jal	ra,143e <strcmp>
    1d0c:	03300793          	li	a5,51
    1d10:	f8050d63          	beqz	a0,14aa <_Z6docodePcS_.constprop.0+0x4a>
    1d14:	658d                	lui	a1,0x3
    1d16:	e3c58593          	addi	a1,a1,-452 # 2e3c <__clz_tab+0x1c0>
    1d1a:	e7c18513          	addi	a0,gp,-388 # 20000278 <_ZL4code>
    1d1e:	f20ff0ef          	jal	ra,143e <strcmp>
    1d22:	03400793          	li	a5,52
    1d26:	f8050263          	beqz	a0,14aa <_Z6docodePcS_.constprop.0+0x4a>
    1d2a:	658d                	lui	a1,0x3
    1d2c:	e4458593          	addi	a1,a1,-444 # 2e44 <__clz_tab+0x1c8>
    1d30:	e7c18513          	addi	a0,gp,-388 # 20000278 <_ZL4code>
    1d34:	f0aff0ef          	jal	ra,143e <strcmp>
    1d38:	03500793          	li	a5,53
    1d3c:	f6050763          	beqz	a0,14aa <_Z6docodePcS_.constprop.0+0x4a>
    1d40:	658d                	lui	a1,0x3
    1d42:	e4c58593          	addi	a1,a1,-436 # 2e4c <__clz_tab+0x1d0>
    1d46:	e7c18513          	addi	a0,gp,-388 # 20000278 <_ZL4code>
    1d4a:	ef4ff0ef          	jal	ra,143e <strcmp>
    1d4e:	03600793          	li	a5,54
    1d52:	f4050c63          	beqz	a0,14aa <_Z6docodePcS_.constprop.0+0x4a>
    1d56:	658d                	lui	a1,0x3
    1d58:	e5458593          	addi	a1,a1,-428 # 2e54 <__clz_tab+0x1d8>
    1d5c:	e7c18513          	addi	a0,gp,-388 # 20000278 <_ZL4code>
    1d60:	edeff0ef          	jal	ra,143e <strcmp>
    1d64:	03700793          	li	a5,55
    1d68:	f4050163          	beqz	a0,14aa <_Z6docodePcS_.constprop.0+0x4a>
    1d6c:	658d                	lui	a1,0x3
    1d6e:	e5c58593          	addi	a1,a1,-420 # 2e5c <__clz_tab+0x1e0>
    1d72:	e7c18513          	addi	a0,gp,-388 # 20000278 <_ZL4code>
    1d76:	ec8ff0ef          	jal	ra,143e <strcmp>
    1d7a:	03800793          	li	a5,56
    1d7e:	f2050663          	beqz	a0,14aa <_Z6docodePcS_.constprop.0+0x4a>
    1d82:	658d                	lui	a1,0x3
    1d84:	e6458593          	addi	a1,a1,-412 # 2e64 <__clz_tab+0x1e8>
    1d88:	e7c18513          	addi	a0,gp,-388 # 20000278 <_ZL4code>
    1d8c:	eb2ff0ef          	jal	ra,143e <strcmp>
    1d90:	03900793          	li	a5,57
    1d94:	f0050b63          	beqz	a0,14aa <_Z6docodePcS_.constprop.0+0x4a>
    1d98:	658d                	lui	a1,0x3
    1d9a:	e6c58593          	addi	a1,a1,-404 # 2e6c <__clz_tab+0x1f0>
    1d9e:	e7c18513          	addi	a0,gp,-388 # 20000278 <_ZL4code>
    1da2:	e9cff0ef          	jal	ra,143e <strcmp>
    1da6:	03000793          	li	a5,48
    1daa:	f0050063          	beqz	a0,14aa <_Z6docodePcS_.constprop.0+0x4a>
    1dae:	658d                	lui	a1,0x3
    1db0:	e7458593          	addi	a1,a1,-396 # 2e74 <__clz_tab+0x1f8>
    1db4:	e7c18513          	addi	a0,gp,-388 # 20000278 <_ZL4code>
    1db8:	e86ff0ef          	jal	ra,143e <strcmp>
    1dbc:	03f00793          	li	a5,63
    1dc0:	ee050563          	beqz	a0,14aa <_Z6docodePcS_.constprop.0+0x4a>
    1dc4:	658d                	lui	a1,0x3
    1dc6:	e8458593          	addi	a1,a1,-380 # 2e84 <__clz_tab+0x208>
    1dca:	e7c18513          	addi	a0,gp,-388 # 20000278 <_ZL4code>
    1dce:	e70ff0ef          	jal	ra,143e <strcmp>
    1dd2:	02c00793          	li	a5,44
    1dd6:	ec050a63          	beqz	a0,14aa <_Z6docodePcS_.constprop.0+0x4a>
    1dda:	658d                	lui	a1,0x3
    1ddc:	e8c58593          	addi	a1,a1,-372 # 2e8c <__clz_tab+0x210>
    1de0:	e7c18513          	addi	a0,gp,-388 # 20000278 <_ZL4code>
    1de4:	e5aff0ef          	jal	ra,143e <strcmp>
    1de8:	02100793          	li	a5,33
    1dec:	ea050f63          	beqz	a0,14aa <_Z6docodePcS_.constprop.0+0x4a>
    1df0:	658d                	lui	a1,0x3
    1df2:	e9458593          	addi	a1,a1,-364 # 2e94 <__clz_tab+0x218>
    1df6:	e7c18513          	addi	a0,gp,-388 # 20000278 <_ZL4code>
    1dfa:	e44ff0ef          	jal	ra,143e <strcmp>
    1dfe:	04000793          	li	a5,64
    1e02:	ea050463          	beqz	a0,14aa <_Z6docodePcS_.constprop.0+0x4a>
    1e06:	658d                	lui	a1,0x3
    1e08:	e9c58593          	addi	a1,a1,-356 # 2e9c <__clz_tab+0x220>
    1e0c:	e7c18513          	addi	a0,gp,-388 # 20000278 <_ZL4code>
    1e10:	e2eff0ef          	jal	ra,143e <strcmp>
    1e14:	03a00793          	li	a5,58
    1e18:	e8050963          	beqz	a0,14aa <_Z6docodePcS_.constprop.0+0x4a>
    1e1c:	658d                	lui	a1,0x3
    1e1e:	ea458593          	addi	a1,a1,-348 # 2ea4 <__clz_tab+0x228>
    1e22:	e7c18513          	addi	a0,gp,-388 # 20000278 <_ZL4code>
    1e26:	e18ff0ef          	jal	ra,143e <strcmp>
    1e2a:	02d00793          	li	a5,45
    1e2e:	e6050e63          	beqz	a0,14aa <_Z6docodePcS_.constprop.0+0x4a>
    1e32:	658d                	lui	a1,0x3
    1e34:	ee458593          	addi	a1,a1,-284 # 2ee4 <__clz_tab+0x268>
    1e38:	e7c18513          	addi	a0,gp,-388 # 20000278 <_ZL4code>
    1e3c:	e02ff0ef          	jal	ra,143e <strcmp>
    1e40:	02a00793          	li	a5,42
    1e44:	e6050363          	beqz	a0,14aa <_Z6docodePcS_.constprop.0+0x4a>
    1e48:	658d                	lui	a1,0x3
    1e4a:	f7458593          	addi	a1,a1,-140 # 2f74 <__clz_tab+0x2f8>
    1e4e:	e7c18513          	addi	a0,gp,-388 # 20000278 <_ZL4code>
    1e52:	decff0ef          	jal	ra,143e <strcmp>
    1e56:	02d00793          	li	a5,45
    1e5a:	e4050863          	beqz	a0,14aa <_Z6docodePcS_.constprop.0+0x4a>
    1e5e:	658d                	lui	a1,0x3
    1e60:	f7c58593          	addi	a1,a1,-132 # 2f7c <__clz_tab+0x300>
    1e64:	e7c18513          	addi	a0,gp,-388 # 20000278 <_ZL4code>
    1e68:	dd6ff0ef          	jal	ra,143e <strcmp>
    1e6c:	0a300793          	li	a5,163
    1e70:	e2050d63          	beqz	a0,14aa <_Z6docodePcS_.constprop.0+0x4a>
    1e74:	658d                	lui	a1,0x3
    1e76:	e7c58593          	addi	a1,a1,-388 # 2e7c <__clz_tab+0x200>
    1e7a:	e7c18513          	addi	a0,gp,-388 # 20000278 <_ZL4code>
    1e7e:	dc0ff0ef          	jal	ra,143e <strcmp>
    1e82:	4781                	li	a5,0
    1e84:	e2051363          	bnez	a0,14aa <_Z6docodePcS_.constprop.0+0x4a>
    1e88:	0a400793          	li	a5,164
    1e8c:	e1eff06f          	j	14aa <_Z6docodePcS_.constprop.0+0x4a>

00001e90 <putchar>:
    1e90:	400146b7          	lui	a3,0x40014
    1e94:	80068713          	addi	a4,a3,-2048 # 40013800 <_eusrstack+0x20013000>
    1e98:	431c                	lw	a5,0(a4)
    1e9a:	0407f793          	andi	a5,a5,64
    1e9e:	dbfd                	beqz	a5,1e94 <putchar+0x4>
    1ea0:	0562                	slli	a0,a0,0x18
    1ea2:	8561                	srai	a0,a0,0x18
    1ea4:	c348                	sw	a0,4(a4)
    1ea6:	4505                	li	a0,1
    1ea8:	8082                	ret

00001eaa <PrintHex>:
    1eaa:	923fe2ef          	jal	t0,7cc <__riscv_save_0>
    1eae:	84aa                	mv	s1,a0
    1eb0:	02000513          	li	a0,32
    1eb4:	3ff1                	jal	1e90 <putchar>
    1eb6:	03000513          	li	a0,48
    1eba:	3fd9                	jal	1e90 <putchar>
    1ebc:	07800513          	li	a0,120
    1ec0:	3fc1                	jal	1e90 <putchar>
    1ec2:	4471                	li	s0,28
    1ec4:	0084d7b3          	srl	a5,s1,s0
    1ec8:	8bbd                	andi	a5,a5,15
    1eca:	4725                	li	a4,9
    1ecc:	05700513          	li	a0,87
    1ed0:	00f76463          	bltu	a4,a5,1ed8 <PrintHex+0x2e>
    1ed4:	03000513          	li	a0,48
    1ed8:	953e                	add	a0,a0,a5
    1eda:	3f5d                	jal	1e90 <putchar>
    1edc:	1471                	addi	s0,s0,-4
    1ede:	57f1                	li	a5,-4
    1ee0:	fef412e3          	bne	s0,a5,1ec4 <PrintHex+0x1a>
    1ee4:	8f3fe06f          	j	7d6 <__riscv_restore_0>

00001ee8 <SystemInit>:
    1ee8:	400227b7          	lui	a5,0x40022
    1eec:	4705                	li	a4,1
    1eee:	c398                	sw	a4,0(a5)
    1ef0:	400217b7          	lui	a5,0x40021
    1ef4:	01080737          	lui	a4,0x1080
    1ef8:	0007a223          	sw	zero,4(a5) # 40021004 <_eusrstack+0x20020804>
    1efc:	08170713          	addi	a4,a4,129 # 1080081 <fix_fft.cpp.5eff4be4+0x1077279>
    1f00:	c398                	sw	a4,0(a5)
    1f02:	009f0737          	lui	a4,0x9f0
    1f06:	c798                	sw	a4,8(a5)
    1f08:	020006b7          	lui	a3,0x2000
    1f0c:	40021737          	lui	a4,0x40021
    1f10:	431c                	lw	a5,0(a4)
    1f12:	8ff5                	and	a5,a5,a3
    1f14:	dff5                	beqz	a5,1f10 <SystemInit+0x28>
    1f16:	435c                	lw	a5,4(a4)
    1f18:	4621                	li	a2,8
    1f1a:	9bf1                	andi	a5,a5,-4
    1f1c:	0027e793          	ori	a5,a5,2
    1f20:	c35c                	sw	a5,4(a4)
    1f22:	400217b7          	lui	a5,0x40021
    1f26:	43d8                	lw	a4,4(a5)
    1f28:	8b31                	andi	a4,a4,12
    1f2a:	fec71ee3          	bne	a4,a2,1f26 <SystemInit+0x3e>
    1f2e:	4f98                	lw	a4,24(a5)
    1f30:	6691                	lui	a3,0x4
    1f32:	02068693          	addi	a3,a3,32 # 4020 <ch32fun.c.e31ec713+0x5b6>
    1f36:	8f55                	or	a4,a4,a3
    1f38:	cf98                	sw	a4,24(a5)
    1f3a:	400117b7          	lui	a5,0x40011
    1f3e:	40078793          	addi	a5,a5,1024 # 40011400 <_eusrstack+0x20010c00>
    1f42:	4398                	lw	a4,0(a5)
    1f44:	ff1006b7          	lui	a3,0xff100
    1f48:	16fd                	addi	a3,a3,-1 # ff0fffff <_eusrstack+0xdf0ff7ff>
    1f4a:	8f75                	and	a4,a4,a3
    1f4c:	c398                	sw	a4,0(a5)
    1f4e:	4398                	lw	a4,0(a5)
    1f50:	009006b7          	lui	a3,0x900
    1f54:	8f55                	or	a4,a4,a3
    1f56:	c398                	sw	a4,0(a5)
    1f58:	400147b7          	lui	a5,0x40014
    1f5c:	80078793          	addi	a5,a5,-2048 # 40013800 <_eusrstack+0x20013000>
    1f60:	c7d0                	sw	a2,12(a5)
    1f62:	0007a823          	sw	zero,16(a5)
    1f66:	0007aa23          	sw	zero,20(a5)
    1f6a:	1a100713          	li	a4,417
    1f6e:	c798                	sw	a4,8(a5)
    1f70:	47d8                	lw	a4,12(a5)
    1f72:	6689                	lui	a3,0x2
    1f74:	8f55                	or	a4,a4,a3
    1f76:	c7d8                	sw	a4,12(a5)
    1f78:	8082                	ret

00001f7a <main>:
    1f7a:	853fe2ef          	jal	t0,7cc <__riscv_save_0>
    1f7e:	715d                	addi	sp,sp,-80
    1f80:	37a5                	jal	1ee8 <SystemInit>
    1f82:	400217b7          	lui	a5,0x40021
    1f86:	4f98                	lw	a4,24(a5)
    1f88:	400116b7          	lui	a3,0x40011
    1f8c:	80068613          	addi	a2,a3,-2048 # 40010800 <_eusrstack+0x20010000>
    1f90:	00476713          	ori	a4,a4,4
    1f94:	cf98                	sw	a4,24(a5)
    1f96:	4f98                	lw	a4,24(a5)
    1f98:	fff105b7          	lui	a1,0xfff10
    1f9c:	15fd                	addi	a1,a1,-1 # fff0ffff <_eusrstack+0xdff0f7ff>
    1f9e:	01076713          	ori	a4,a4,16
    1fa2:	cf98                	sw	a4,24(a5)
    1fa4:	4f98                	lw	a4,24(a5)
    1fa6:	6305                	lui	t1,0x1
    1fa8:	80030313          	addi	t1,t1,-2048 # 800 <__hidden___udivsi3>
    1fac:	02076713          	ori	a4,a4,32
    1fb0:	cf98                	sw	a4,24(a5)
    1fb2:	4218                	lw	a4,0(a2)
    1fb4:	f0f77713          	andi	a4,a4,-241
    1fb8:	c218                	sw	a4,0(a2)
    1fba:	4218                	lw	a4,0(a2)
    1fbc:	08076713          	ori	a4,a4,128
    1fc0:	c218                	sw	a4,0(a2)
    1fc2:	4709                	li	a4,2
    1fc4:	ca18                	sw	a4,16(a2)
    1fc6:	4298                	lw	a4,0(a3)
    1fc8:	8f6d                	and	a4,a4,a1
    1fca:	c298                	sw	a4,0(a3)
    1fcc:	4298                	lw	a4,0(a3)
    1fce:	000805b7          	lui	a1,0x80
    1fd2:	8f4d                	or	a4,a4,a1
    1fd4:	c298                	sw	a4,0(a3)
    1fd6:	4741                	li	a4,16
    1fd8:	ca98                	sw	a4,16(a3)
    1fda:	40068713          	addi	a4,a3,1024
    1fde:	4308                	lw	a0,0(a4)
    1fe0:	75fd                	lui	a1,0xfffff
    1fe2:	0ff58593          	addi	a1,a1,255 # fffff0ff <_eusrstack+0xdfffe8ff>
    1fe6:	8d6d                	and	a0,a0,a1
    1fe8:	c308                	sw	a0,0(a4)
    1fea:	4308                	lw	a0,0(a4)
    1fec:	00656533          	or	a0,a0,t1
    1ff0:	c308                	sw	a0,0(a4)
    1ff2:	4511                	li	a0,4
    1ff4:	cb08                	sw	a0,16(a4)
    1ff6:	4208                	lw	a0,0(a2)
    1ff8:	8de9                	and	a1,a1,a0
    1ffa:	c20c                	sw	a1,0(a2)
    1ffc:	420c                	lw	a1,0(a2)
    1ffe:	c20c                	sw	a1,0(a2)
    2000:	4290                	lw	a2,0(a3)
    2002:	9a41                	andi	a2,a2,-16
    2004:	c290                	sw	a2,0(a3)
    2006:	4290                	lw	a2,0(a3)
    2008:	00166613          	ori	a2,a2,1
    200c:	c290                	sw	a2,0(a3)
    200e:	6641                	lui	a2,0x10
    2010:	ca90                	sw	a2,16(a3)
    2012:	4314                	lw	a3,0(a4)
    2014:	f1000637          	lui	a2,0xf1000
    2018:	167d                	addi	a2,a2,-1 # f0ffffff <_eusrstack+0xd0fff7ff>
    201a:	8ef1                	and	a3,a3,a2
    201c:	c314                	sw	a3,0(a4)
    201e:	4314                	lw	a3,0(a4)
    2020:	01000637          	lui	a2,0x1000
    2024:	8ed1                	or	a3,a3,a2
    2026:	c314                	sw	a3,0(a4)
    2028:	004006b7          	lui	a3,0x400
    202c:	cb14                	sw	a3,16(a4)
    202e:	4314                	lw	a3,0(a4)
    2030:	ff100637          	lui	a2,0xff100
    2034:	167d                	addi	a2,a2,-1 # ff0fffff <_eusrstack+0xdf0ff7ff>
    2036:	8ef1                	and	a3,a3,a2
    2038:	c314                	sw	a3,0(a4)
    203a:	4314                	lw	a3,0(a4)
    203c:	00900637          	lui	a2,0x900
    2040:	8ed1                	or	a3,a3,a2
    2042:	c314                	sw	a3,0(a4)
    2044:	4f98                	lw	a4,24(a5)
    2046:	76c1                	lui	a3,0xffff0
    2048:	7ff68693          	addi	a3,a3,2047 # ffff07ff <_eusrstack+0xdffeffff>
    204c:	00176713          	ori	a4,a4,1
    2050:	cf98                	sw	a4,24(a5)
    2052:	43d8                	lw	a4,4(a5)
    2054:	8f75                	and	a4,a4,a3
    2056:	c3d8                	sw	a4,4(a5)
    2058:	4f98                	lw	a4,24(a5)
    205a:	249256b7          	lui	a3,0x24925
    205e:	92468693          	addi	a3,a3,-1756 # 24924924 <_eusrstack+0x4924124>
    2062:	20076713          	ori	a4,a4,512
    2066:	cf98                	sw	a4,24(a5)
    2068:	47d8                	lw	a4,12(a5)
    206a:	20076713          	ori	a4,a4,512
    206e:	c7d8                	sw	a4,12(a5)
    2070:	47d8                	lw	a4,12(a5)
    2072:	dff77713          	andi	a4,a4,-513
    2076:	c7d8                	sw	a4,12(a5)
    2078:	400127b7          	lui	a5,0x40012
    207c:	40078793          	addi	a5,a5,1024 # 40012400 <_eusrstack+0x20011c00>
    2080:	4b98                	lw	a4,16(a5)
    2082:	0007a823          	sw	zero,16(a5)
    2086:	4b98                	lw	a4,16(a5)
    2088:	8f55                	or	a4,a4,a3
    208a:	cb98                	sw	a4,16(a5)
    208c:	47d8                	lw	a4,12(a5)
    208e:	0007a623          	sw	zero,12(a5)
    2092:	47d8                	lw	a4,12(a5)
    2094:	000256b7          	lui	a3,0x25
    2098:	92468693          	addi	a3,a3,-1756 # 24924 <fix_fft.cpp.5eff4be4+0x1bb1c>
    209c:	8f55                	or	a4,a4,a3
    209e:	c7d8                	sw	a4,12(a5)
    20a0:	4798                	lw	a4,8(a5)
    20a2:	000e06b7          	lui	a3,0xe0
    20a6:	8f55                	or	a4,a4,a3
    20a8:	c798                	sw	a4,8(a5)
    20aa:	0207a623          	sw	zero,44(a5)
    20ae:	0207a823          	sw	zero,48(a5)
    20b2:	0207aa23          	sw	zero,52(a5)
    20b6:	4798                	lw	a4,8(a5)
    20b8:	400126b7          	lui	a3,0x40012
    20bc:	00176713          	ori	a4,a4,1
    20c0:	c798                	sw	a4,8(a5)
    20c2:	4798                	lw	a4,8(a5)
    20c4:	00876713          	ori	a4,a4,8
    20c8:	c798                	sw	a4,8(a5)
    20ca:	40068793          	addi	a5,a3,1024 # 40012400 <_eusrstack+0x20011c00>
    20ce:	4798                	lw	a4,8(a5)
    20d0:	8b21                	andi	a4,a4,8
    20d2:	ff65                	bnez	a4,20ca <main+0x150>
    20d4:	4798                	lw	a4,8(a5)
    20d6:	00476713          	ori	a4,a4,4
    20da:	c798                	sw	a4,8(a5)
    20dc:	40012737          	lui	a4,0x40012
    20e0:	40070793          	addi	a5,a4,1024 # 40012400 <_eusrstack+0x20011c00>
    20e4:	479c                	lw	a5,8(a5)
    20e6:	8b91                	andi	a5,a5,4
    20e8:	ffe5                	bnez	a5,20e0 <main+0x166>
    20ea:	40021637          	lui	a2,0x40021
    20ee:	4e1c                	lw	a5,24(a2)
    20f0:	6485                	lui	s1,0x1
    20f2:	03048713          	addi	a4,s1,48 # 1030 <_ZL15GPIO_analogRead18GPIO_analog_inputs.constprop.0+0xa>
    20f6:	8fd9                	or	a5,a5,a4
    20f8:	ce1c                	sw	a5,24(a2)
    20fa:	40011437          	lui	s0,0x40011
    20fe:	401c                	lw	a5,0(s0)
    2100:	7745                	lui	a4,0xffff1
    2102:	177d                	addi	a4,a4,-1 # ffff0fff <_eusrstack+0xdfff07ff>
    2104:	8ff9                	and	a5,a5,a4
    2106:	c01c                	sw	a5,0(s0)
    2108:	401c                	lw	a5,0(s0)
    210a:	670d                	lui	a4,0x3
    210c:	300006b7          	lui	a3,0x30000
    2110:	8fd9                	or	a5,a5,a4
    2112:	c01c                	sw	a5,0(s0)
    2114:	401c                	lw	a5,0(s0)
    2116:	ff1005b7          	lui	a1,0xff100
    211a:	15fd                	addi	a1,a1,-1 # ff0fffff <_eusrstack+0xdf0ff7ff>
    211c:	0792                	slli	a5,a5,0x4
    211e:	8391                	srli	a5,a5,0x4
    2120:	c01c                	sw	a5,0(s0)
    2122:	401c                	lw	a5,0(s0)
    2124:	0b070713          	addi	a4,a4,176 # 30b0 <_ZL5fontk+0x100>
    2128:	77048513          	addi	a0,s1,1904
    212c:	8fd5                	or	a5,a5,a3
    212e:	c01c                	sw	a5,0(s0)
    2130:	40040693          	addi	a3,s0,1024 # 40011400 <_eusrstack+0x20010c00>
    2134:	429c                	lw	a5,0(a3)
    2136:	9bc1                	andi	a5,a5,-16
    2138:	c29c                	sw	a5,0(a3)
    213a:	429c                	lw	a5,0(a3)
    213c:	0037e793          	ori	a5,a5,3
    2140:	c29c                	sw	a5,0(a3)
    2142:	401c                	lw	a5,0(s0)
    2144:	8fed                	and	a5,a5,a1
    2146:	c01c                	sw	a5,0(s0)
    2148:	401c                	lw	a5,0(s0)
    214a:	00b005b7          	lui	a1,0xb00
    214e:	8fcd                	or	a5,a5,a1
    2150:	c01c                	sw	a5,0(s0)
    2152:	401c                	lw	a5,0(s0)
    2154:	f10005b7          	lui	a1,0xf1000
    2158:	15fd                	addi	a1,a1,-1 # f0ffffff <_eusrstack+0xd0fff7ff>
    215a:	8fed                	and	a5,a5,a1
    215c:	c01c                	sw	a5,0(s0)
    215e:	401c                	lw	a5,0(s0)
    2160:	0b0005b7          	lui	a1,0xb000
    2164:	8fcd                	or	a5,a5,a1
    2166:	75f1                	lui	a1,0xffffc
    2168:	c01c                	sw	a5,0(s0)
    216a:	30758593          	addi	a1,a1,775 # ffffc307 <_eusrstack+0xdfffbb07>
    216e:	400137b7          	lui	a5,0x40013
    2172:	a38e                	sh	a1,0(a5)
    2174:	459d                	li	a1,7
    2176:	ab8e                	sh	a1,16(a5)
    2178:	23ce                	lhu	a1,4(a5)
    217a:	07b1                	addi	a5,a5,12 # 4001300c <_eusrstack+0x2001280c>
    217c:	0025e593          	ori	a1,a1,2
    2180:	feb79c23          	sh	a1,-8(a5)
    2184:	ff47d583          	lhu	a1,-12(a5)
    2188:	0405e593          	ori	a1,a1,64
    218c:	feb79a23          	sh	a1,-12(a5)
    2190:	4a4c                	lw	a1,20(a2)
    2192:	0015e593          	ori	a1,a1,1
    2196:	ca4c                	sw	a1,20(a2)
    2198:	40020637          	lui	a2,0x40020
    219c:	da18                	sw	a4,48(a2)
    219e:	de1c                	sw	a5,56(a2)
    21a0:	481c                	lw	a5,16(s0)
    21a2:	0807e793          	ori	a5,a5,128
    21a6:	c81c                	sw	a5,16(s0)
    21a8:	fd8fe0ef          	jal	ra,980 <DelaySysTick>
    21ac:	485c                	lw	a5,20(s0)
    21ae:	77048513          	addi	a0,s1,1904
    21b2:	000b04b7          	lui	s1,0xb0
    21b6:	0807e793          	ori	a5,a5,128
    21ba:	c85c                	sw	a5,20(s0)
    21bc:	fc4fe0ef          	jal	ra,980 <DelaySysTick>
    21c0:	481c                	lw	a5,16(s0)
    21c2:	c8048513          	addi	a0,s1,-896 # afc80 <fix_fft.cpp.5eff4be4+0xa6e78>
    21c6:	0807e793          	ori	a5,a5,128
    21ca:	c81c                	sw	a5,16(s0)
    21cc:	fb4fe0ef          	jal	ra,980 <DelaySysTick>
    21d0:	485c                	lw	a5,20(s0)
    21d2:	4545                	li	a0,17
    21d4:	0087e793          	ori	a5,a5,8
    21d8:	c85c                	sw	a5,20(s0)
    21da:	8c5fe0ef          	jal	ra,a9e <_ZL15write_command_8h>
    21de:	c8048513          	addi	a0,s1,-896
    21e2:	f9efe0ef          	jal	ra,980 <DelaySysTick>
    21e6:	03a00513          	li	a0,58
    21ea:	8b5fe0ef          	jal	ra,a9e <_ZL15write_command_8h>
    21ee:	400117b7          	lui	a5,0x40011
    21f2:	40078693          	addi	a3,a5,1024 # 40011400 <_eusrstack+0x20010c00>
    21f6:	4a9c                	lw	a5,16(a3)
    21f8:	05500513          	li	a0,85
    21fc:	64bd                	lui	s1,0xf
    21fe:	0017e793          	ori	a5,a5,1
    2202:	ca9c                	sw	a5,16(a3)
    2204:	889fe0ef          	jal	ra,a8c <_ZL8SPI_sendh>
    2208:	a6048513          	addi	a0,s1,-1440 # ea60 <fix_fft.cpp.5eff4be4+0x5c58>
    220c:	f74fe0ef          	jal	ra,980 <DelaySysTick>
    2210:	03600513          	li	a0,54
    2214:	88bfe0ef          	jal	ra,a9e <_ZL15write_command_8h>
    2218:	400117b7          	lui	a5,0x40011
    221c:	40078693          	addi	a3,a5,1024 # 40011400 <_eusrstack+0x20010c00>
    2220:	4a9c                	lw	a5,16(a3)
    2222:	06000513          	li	a0,96
    2226:	0017e793          	ori	a5,a5,1
    222a:	ca9c                	sw	a5,16(a3)
    222c:	861fe0ef          	jal	ra,a8c <_ZL8SPI_sendh>
    2230:	a6048513          	addi	a0,s1,-1440
    2234:	f4cfe0ef          	jal	ra,980 <DelaySysTick>
    2238:	02100513          	li	a0,33
    223c:	863fe0ef          	jal	ra,a9e <_ZL15write_command_8h>
    2240:	a6048513          	addi	a0,s1,-1440
    2244:	f3cfe0ef          	jal	ra,980 <DelaySysTick>
    2248:	02900513          	li	a0,41
    224c:	853fe0ef          	jal	ra,a9e <_ZL15write_command_8h>
    2250:	a6048513          	addi	a0,s1,-1440
    2254:	f2cfe0ef          	jal	ra,980 <DelaySysTick>
    2258:	481c                	lw	a5,16(s0)
    225a:	0087e793          	ori	a5,a5,8
    225e:	c81c                	sw	a5,16(s0)
    2260:	08700693          	li	a3,135
    2264:	0f000613          	li	a2,240
    2268:	4581                	li	a1,0
    226a:	4501                	li	a0,0
    226c:	d3dfe0ef          	jal	ra,fa8 <_Z13tft_fill_rectttttt.constprop.0>
    2270:	02800493          	li	s1,40
    2274:	fc919f23          	sh	s1,-34(gp) # 200003da <_ZL9_cursor_x>
    2278:	47fd                	li	a5,31
    227a:	c6f19123          	sh	a5,-926(gp) # 2000005e <_ZL6_color>
    227e:	4589                	li	a1,2
    2280:	03f00793          	li	a5,63
    2284:	c2418513          	addi	a0,gp,-988 # 20000020 <_ZL6title1.lto_priv.0>
    2288:	fcf19e23          	sh	a5,-36(gp) # 200003d8 <_ZL9_cursor_y>
    228c:	af1fe0ef          	jal	ra,d7c <_Z9tft_printPKch>
    2290:	80000793          	li	a5,-2048
    2294:	c6f19123          	sh	a5,-926(gp) # 2000005e <_ZL6_color>
    2298:	fc919f23          	sh	s1,-34(gp) # 200003da <_ZL9_cursor_x>
    229c:	4589                	li	a1,2
    229e:	05300793          	li	a5,83
    22a2:	c1418513          	addi	a0,gp,-1004 # 20000010 <_ZL6title2.lto_priv.0>
    22a6:	fcf19e23          	sh	a5,-36(gp) # 200003d8 <_ZL9_cursor_y>
    22aa:	ad3fe0ef          	jal	ra,d7c <_Z9tft_printPKch>
    22ae:	fc919f23          	sh	s1,-34(gp) # 200003da <_ZL9_cursor_x>
    22b2:	06700793          	li	a5,103
    22b6:	fcf19e23          	sh	a5,-36(gp) # 200003d8 <_ZL9_cursor_y>
    22ba:	4589                	li	a1,2
    22bc:	7e000793          	li	a5,2016
    22c0:	c0418513          	addi	a0,gp,-1020 # 20000000 <_ZL6title3.lto_priv.0>
    22c4:	c6f19123          	sh	a5,-926(gp) # 2000005e <_ZL6_color>
    22c8:	ab5fe0ef          	jal	ra,d7c <_Z9tft_printPKch>
    22cc:	57fd                	li	a5,-1
    22ce:	c6f19123          	sh	a5,-926(gp) # 2000005e <_ZL6_color>
    22d2:	c6419503          	lh	a0,-924(gp) # 20000060 <_ZL5speed>
    22d6:	f9cfe0ef          	jal	ra,a72 <_Z8setSpeeds>
    22da:	07000793          	li	a5,112
    22de:	4635                	li	a2,13
    22e0:	02000593          	li	a1,32
    22e4:	fb818513          	addi	a0,gp,-72 # 200003b4 <line1>
    22e8:	eaf19a23          	sh	a5,-332(gp) # 200002b0 <sampling_period_us>
    22ec:	930ff0ef          	jal	ra,141c <memset>
    22f0:	4635                	li	a2,13
    22f2:	02000593          	li	a1,32
    22f6:	fc818513          	addi	a0,gp,-56 # 200003c4 <line2>
    22fa:	922ff0ef          	jal	ra,141c <memset>
    22fe:	005b9537          	lui	a0,0x5b9
    2302:	d8050513          	addi	a0,a0,-640 # 5b8d80 <fix_fft.cpp.5eff4be4+0x5aff78>
    2306:	e7afe0ef          	jal	ra,980 <DelaySysTick>
    230a:	08700693          	li	a3,135
    230e:	0f000613          	li	a2,240
    2312:	4581                	li	a1,0
    2314:	4501                	li	a0,0
    2316:	c93fe0ef          	jal	ra,fa8 <_Z13tft_fill_rectttttt.constprop.0>
    231a:	400117b7          	lui	a5,0x40011
    231e:	40078793          	addi	a5,a5,1024 # 40011400 <_eusrstack+0x20010c00>
    2322:	04000713          	li	a4,64
    2326:	cb98                	sw	a4,16(a5)
    2328:	f20fe0ef          	jal	ra,a48 <_Z11check_inputv>
    232c:	c02a                	sw	a0,0(sp)
    232e:	478d                	li	a5,3
    2330:	2af51c63          	bne	a0,a5,25e8 <main+0x66e>
    2334:	c641d503          	lhu	a0,-924(gp) # 20000060 <_ZL5speed>
    2338:	157d                	addi	a0,a0,-1
    233a:	0542                	slli	a0,a0,0x10
    233c:	8541                	srai	a0,a0,0x10
    233e:	00055363          	bgez	a0,2344 <main+0x3ca>
    2342:	4509                	li	a0,2
    2344:	c6a19223          	sh	a0,-924(gp) # 20000060 <_ZL5speed>
    2348:	f2afe0ef          	jal	ra,a72 <_Z8setSpeeds>
    234c:	852ff0ef          	jal	ra,139e <_ZL17updateinfolinelcdv>
    2350:	001b7537          	lui	a0,0x1b7
    2354:	74050513          	addi	a0,a0,1856 # 1b7740 <fix_fft.cpp.5eff4be4+0x1ae938>
    2358:	e28fe0ef          	jal	ra,980 <DelaySysTick>
    235c:	eb818493          	addi	s1,gp,-328 # 200002b4 <buf>
    2360:	eb818413          	addi	s0,gp,-328 # 200002b4 <buf>
    2364:	c002                	sw	zero,0(sp)
    2366:	e000f7b7          	lui	a5,0xe000f
    236a:	4788                	lw	a0,8(a5)
    236c:	4599                	li	a1,6
    236e:	c92fe0ef          	jal	ra,800 <__hidden___udivsi3>
    2372:	c22a                	sw	a0,4(sp)
    2374:	cb3fe0ef          	jal	ra,1026 <_ZL15GPIO_analogRead18GPIO_analog_inputs.constprop.0>
    2378:	4782                	lw	a5,0(sp)
    237a:	a00a                	sh	a0,0(s0)
    237c:	953e                	add	a0,a0,a5
    237e:	01051793          	slli	a5,a0,0x10
    2382:	87c1                	srai	a5,a5,0x10
    2384:	c03e                	sw	a5,0(sp)
    2386:	eb41d703          	lhu	a4,-332(gp) # 200002b0 <sampling_period_us>
    238a:	e000f7b7          	lui	a5,0xe000f
    238e:	4788                	lw	a0,8(a5)
    2390:	4599                	li	a1,6
    2392:	c43a                	sw	a4,8(sp)
    2394:	c6cfe0ef          	jal	ra,800 <__hidden___udivsi3>
    2398:	4792                	lw	a5,4(sp)
    239a:	4722                	lw	a4,8(sp)
    239c:	8d1d                	sub	a0,a0,a5
    239e:	fee566e3          	bltu	a0,a4,238a <main+0x410>
    23a2:	0409                	addi	s0,s0,2
    23a4:	f1818793          	addi	a5,gp,-232 # 20000314 <buf+0x60>
    23a8:	fa879fe3          	bne	a5,s0,2366 <main+0x3ec>
    23ac:	4502                	lw	a0,0(sp)
    23ae:	03000593          	li	a1,48
    23b2:	c46fe0ef          	jal	ra,7f8 <__divsi3>
    23b6:	0542                	slli	a0,a0,0x10
    23b8:	8541                	srai	a0,a0,0x10
    23ba:	87a6                	mv	a5,s1
    23bc:	239a                	lhu	a4,0(a5)
    23be:	0789                	addi	a5,a5,2 # e000f002 <_eusrstack+0xc000e802>
    23c0:	8f09                	sub	a4,a4,a0
    23c2:	fee79f23          	sh	a4,-2(a5)
    23c6:	f1818713          	addi	a4,gp,-232 # 20000314 <buf+0x60>
    23ca:	fef719e3          	bne	a4,a5,23bc <main+0x442>
    23ce:	400117b7          	lui	a5,0x40011
    23d2:	40078793          	addi	a5,a5,1024 # 40011400 <_eusrstack+0x20010c00>
    23d6:	00400737          	lui	a4,0x400
    23da:	cb98                	sw	a4,16(a5)
    23dc:	e7019783          	lh	a5,-400(gp) # 2000026c <_ZL8coeff100>
    23e0:	4401                	li	s0,0
    23e2:	c03e                	sw	a5,0(sp)
    23e4:	4781                	li	a5,0
    23e6:	4502                	lw	a0,0(sp)
    23e8:	85a2                	mv	a1,s0
    23ea:	c23e                	sw	a5,4(sp)
    23ec:	bf4fe0ef          	jal	ra,7e0 <__mulsi3>
    23f0:	06400593          	li	a1,100
    23f4:	c04fe0ef          	jal	ra,7f8 <__divsi3>
    23f8:	4792                	lw	a5,4(sp)
    23fa:	00049703          	lh	a4,0(s1)
    23fe:	8d1d                	sub	a0,a0,a5
    2400:	0489                	addi	s1,s1,2
    2402:	f1818693          	addi	a3,gp,-232 # 20000314 <buf+0x60>
    2406:	972a                	add	a4,a4,a0
    2408:	87a2                	mv	a5,s0
    240a:	30969663          	bne	a3,s1,2716 <main+0x79c>
    240e:	85ba                	mv	a1,a4
    2410:	e681aa23          	sw	s0,-396(gp) # 20000270 <_ZL2Q2>
    2414:	853a                	mv	a0,a4
    2416:	e6e1ac23          	sw	a4,-392(gp) # 20000274 <_ZL2Q1>
    241a:	c23a                	sw	a4,4(sp)
    241c:	bc4fe0ef          	jal	ra,7e0 <__mulsi3>
    2420:	85a2                	mv	a1,s0
    2422:	84aa                	mv	s1,a0
    2424:	8522                	mv	a0,s0
    2426:	bbafe0ef          	jal	ra,7e0 <__mulsi3>
    242a:	4712                	lw	a4,4(sp)
    242c:	94aa                	add	s1,s1,a0
    242e:	85a2                	mv	a1,s0
    2430:	853a                	mv	a0,a4
    2432:	baefe0ef          	jal	ra,7e0 <__mulsi3>
    2436:	4582                	lw	a1,0(sp)
    2438:	ba8fe0ef          	jal	ra,7e0 <__mulsi3>
    243c:	f9c00593          	li	a1,-100
    2440:	bb8fe0ef          	jal	ra,7f8 <__divsi3>
    2444:	00a48433          	add	s0,s1,a0
    2448:	41f45793          	srai	a5,s0,0x1f
    244c:	8c3d                	xor	s0,s0,a5
    244e:	8c1d                	sub	s0,s0,a5
    2450:	19000593          	li	a1,400
    2454:	8522                	mv	a0,s0
    2456:	ba2fe0ef          	jal	ra,7f8 <__divsi3>
    245a:	4681                	li	a3,0
    245c:	4701                	li	a4,0
    245e:	09f00613          	li	a2,159
    2462:	04f00593          	li	a1,79
    2466:	84aa                	mv	s1,a0
    2468:	09f00513          	li	a0,159
    246c:	9fdfe0ef          	jal	ra,e68 <_Z13tft_draw_linesssst>
    2470:	75ed                	lui	a1,0xffffb
    2472:	1e058593          	addi	a1,a1,480 # ffffb1e0 <_eusrstack+0xdfffa9e0>
    2476:	8522                	mv	a0,s0
    2478:	b80fe0ef          	jal	ra,7f8 <__divsi3>
    247c:	05050513          	addi	a0,a0,80
    2480:	86aa                	mv	a3,a0
    2482:	0542                	slli	a0,a0,0x10
    2484:	8541                	srai	a0,a0,0x10
    2486:	05000793          	li	a5,80
    248a:	28a7d863          	bge	a5,a0,271a <main+0x7a0>
    248e:	05000693          	li	a3,80
    2492:	6741                	lui	a4,0x10
    2494:	06c2                	slli	a3,a3,0x10
    2496:	1701                	addi	a4,a4,-32 # ffe0 <fix_fft.cpp.5eff4be4+0x71d8>
    2498:	86c1                	srai	a3,a3,0x10
    249a:	09f00613          	li	a2,159
    249e:	04f00593          	li	a1,79
    24a2:	09f00513          	li	a0,159
    24a6:	9c3fe0ef          	jal	ra,e68 <_Z13tft_draw_linesssst>
    24aa:	67a9                	lui	a5,0xa
    24ac:	dcf78793          	addi	a5,a5,-561 # 9dcf <fix_fft.cpp.5eff4be4+0xfc7>
    24b0:	0087dc63          	bge	a5,s0,24c8 <main+0x54e>
    24b4:	c321d403          	lhu	s0,-974(gp) # 2000002e <_ZL14magnitudelimit>
    24b8:	4599                	li	a1,6
    24ba:	40848533          	sub	a0,s1,s0
    24be:	b3afe0ef          	jal	ra,7f8 <__divsi3>
    24c2:	942a                	add	s0,s0,a0
    24c4:	c2819923          	sh	s0,-974(gp) # 2000002e <_ZL14magnitudelimit>
    24c8:	c321d683          	lhu	a3,-974(gp) # 2000002e <_ZL14magnitudelimit>
    24cc:	06300793          	li	a5,99
    24d0:	00d7e663          	bltu	a5,a3,24dc <main+0x562>
    24d4:	06400793          	li	a5,100
    24d8:	c2f19923          	sh	a5,-974(gp) # 2000002e <_ZL14magnitudelimit>
    24dc:	8526                	mv	a0,s1
    24de:	a3cfe0ef          	jal	ra,71a <__floatsidf>
    24e2:	84aa                	mv	s1,a0
    24e4:	c321d503          	lhu	a0,-974(gp) # 2000002e <_ZL14magnitudelimit>
    24e8:	842e                	mv	s0,a1
    24ea:	a30fe0ef          	jal	ra,71a <__floatsidf>
    24ee:	6791                	lui	a5,0x4
    24f0:	8987a603          	lw	a2,-1896(a5) # 3898 <_ZL4tone+0x10>
    24f4:	89c7a683          	lw	a3,-1892(a5)
    24f8:	d3dfd0ef          	jal	ra,234 <__muldf3>
    24fc:	862a                	mv	a2,a0
    24fe:	86ae                	mv	a3,a1
    2500:	8526                	mv	a0,s1
    2502:	85a2                	mv	a1,s0
    2504:	b9dfd0ef          	jal	ra,a0 <__gedf2>
    2508:	00a024b3          	sgtz	s1,a0
    250c:	ea919923          	sh	s1,-334(gp) # 200002ae <_ZL9realstate>
    2510:	eb01d783          	lhu	a5,-336(gp) # 200002ac <_ZL15realstatebefore>
    2514:	00978c63          	beq	a5,s1,252c <main+0x5b2>
    2518:	e000f7b7          	lui	a5,0xe000f
    251c:	4788                	lw	a0,8(a5)
    251e:	6585                	lui	a1,0x1
    2520:	77058593          	addi	a1,a1,1904 # 1770 <_Z6docodePcS_.constprop.0+0x310>
    2524:	adcfe0ef          	jal	ra,800 <__hidden___udivsi3>
    2528:	eaa1a623          	sw	a0,-340(gp) # 200002a8 <_ZL13laststarttime>
    252c:	e000f7b7          	lui	a5,0xe000f
    2530:	4788                	lw	a0,8(a5)
    2532:	6585                	lui	a1,0x1
    2534:	77058593          	addi	a1,a1,1904 # 1770 <_Z6docodePcS_.constprop.0+0x310>
    2538:	ac8fe0ef          	jal	ra,800 <__hidden___udivsi3>
    253c:	eac1a783          	lw	a5,-340(gp) # 200002a8 <_ZL13laststarttime>
    2540:	4719                	li	a4,6
    2542:	8d1d                	sub	a0,a0,a5
    2544:	00a77863          	bgeu	a4,a0,2554 <main+0x5da>
    2548:	eaa1d703          	lhu	a4,-342(gp) # 200002a6 <_ZL13filteredstate>
    254c:	00970463          	beq	a4,s1,2554 <main+0x5da>
    2550:	ea919523          	sh	s1,-342(gp) # 200002a6 <_ZL13filteredstate>
    2554:	eaa1d783          	lhu	a5,-342(gp) # 200002a6 <_ZL13filteredstate>
    2558:	e941a683          	lw	a3,-364(gp) # 20000290 <_ZL12hightimesavg>
    255c:	c03e                	sw	a5,0(sp)
    255e:	ea81d483          	lhu	s1,-344(gp) # 200002a4 <_ZL19filteredstatebefore>
    2562:	4782                	lw	a5,0(sp)
    2564:	2e978063          	beq	a5,s1,2844 <main+0x8ca>
    2568:	4702                	lw	a4,0(sp)
    256a:	4785                	li	a5,1
    256c:	1af71d63          	bne	a4,a5,2726 <main+0x7ac>
    2570:	e000f7b7          	lui	a5,0xe000f
    2574:	4788                	lw	a0,8(a5)
    2576:	6405                	lui	s0,0x1
    2578:	77040593          	addi	a1,s0,1904 # 1770 <_Z6docodePcS_.constprop.0+0x310>
    257c:	c236                	sw	a3,4(sp)
    257e:	a82fe0ef          	jal	ra,800 <__hidden___udivsi3>
    2582:	e000f7b7          	lui	a5,0xe000f
    2586:	eaa1a223          	sw	a0,-348(gp) # 200002a0 <_ZL13starttimehigh>
    258a:	4788                	lw	a0,8(a5)
    258c:	77040593          	addi	a1,s0,1904
    2590:	a70fe0ef          	jal	ra,800 <__hidden___udivsi3>
    2594:	ea01a783          	lw	a5,-352(gp) # 2000029c <_ZL13startttimelow>
    2598:	4692                	lw	a3,4(sp)
    259a:	8d1d                	sub	a0,a0,a5
    259c:	e8a1ae23          	sw	a0,-356(gp) # 20000298 <_ZL11lowduration>
    25a0:	4782                	lw	a5,0(sp)
    25a2:	00f48463          	beq	s1,a5,25aa <main+0x630>
    25a6:	e8019823          	sh	zero,-368(gp) # 2000028c <_ZL4stop>
    25aa:	18068263          	beqz	a3,272e <main+0x7b4>
    25ae:	e9c1a583          	lw	a1,-356(gp) # 20000298 <_ZL11lowduration>
    25b2:	00169793          	slli	a5,a3,0x1
    25b6:	97b6                	add	a5,a5,a3
    25b8:	0017d713          	srli	a4,a5,0x1
    25bc:	16e5e963          	bltu	a1,a4,272e <main+0x7b4>
    25c0:	00369713          	slli	a4,a3,0x3
    25c4:	9736                	add	a4,a4,a3
    25c6:	8305                	srli	a4,a4,0x1
    25c8:	e7c18603          	lb	a2,-388(gp) # 20000278 <_ZL4code>
    25cc:	00e5e563          	bltu	a1,a4,25d6 <main+0x65c>
    25d0:	0786                	slli	a5,a5,0x1
    25d2:	2af5fe63          	bgeu	a1,a5,288e <main+0x914>
    25d6:	14060c63          	beqz	a2,272e <main+0x7b4>
    25da:	e87fe0ef          	jal	ra,1460 <_Z6docodePcS_.constprop.0>
    25de:	a83fe0ef          	jal	ra,1060 <_ZL11decodeAsciis.isra.0>
    25e2:	e6018e23          	sb	zero,-388(gp) # 20000278 <_ZL4code>
    25e6:	a2a1                	j	272e <main+0x7b4>
    25e8:	4702                	lw	a4,0(sp)
    25ea:	4789                	li	a5,2
    25ec:	00f71963          	bne	a4,a5,25fe <main+0x684>
    25f0:	fe01c783          	lbu	a5,-32(gp) # 200003dc <_ZL2sw>
    25f4:	0017c793          	xori	a5,a5,1
    25f8:	fef18023          	sb	a5,-32(gp) # 200003dc <_ZL2sw>
    25fc:	bb81                	j	234c <main+0x3d2>
    25fe:	4702                	lw	a4,0(sp)
    2600:	4785                	li	a5,1
    2602:	d4f71de3          	bne	a4,a5,235c <main+0x3e2>
    2606:	001b7537          	lui	a0,0x1b7
    260a:	74050513          	addi	a0,a0,1856 # 1b7740 <fix_fft.cpp.5eff4be4+0x1ae938>
    260e:	b72fe0ef          	jal	ra,980 <DelaySysTick>
    2612:	0f000613          	li	a2,240
    2616:	09600793          	li	a5,150
    261a:	08700693          	li	a3,135
    261e:	4581                	li	a1,0
    2620:	4501                	li	a0,0
    2622:	eaf19a23          	sh	a5,-332(gp) # 200002b0 <sampling_period_us>
    2626:	983fe0ef          	jal	ra,fa8 <_Z13tft_fill_rectttttt.constprop.0>
    262a:	47fd                	li	a5,31
    262c:	02800493          	li	s1,40
    2630:	c6f19123          	sh	a5,-926(gp) # 2000005e <_ZL6_color>
    2634:	03f00713          	li	a4,63
    2638:	4589                	li	a1,2
    263a:	c5418513          	addi	a0,gp,-940 # 20000050 <_ZL6title1.lto_priv.1>
    263e:	fc919f23          	sh	s1,-34(gp) # 200003da <_ZL9_cursor_x>
    2642:	fce19e23          	sh	a4,-36(gp) # 200003d8 <_ZL9_cursor_y>
    2646:	f36fe0ef          	jal	ra,d7c <_Z9tft_printPKch>
    264a:	80000713          	li	a4,-2048
    264e:	c6e19123          	sh	a4,-926(gp) # 2000005e <_ZL6_color>
    2652:	05300713          	li	a4,83
    2656:	4589                	li	a1,2
    2658:	c4418513          	addi	a0,gp,-956 # 20000040 <_ZL6title2.lto_priv.1>
    265c:	fc919f23          	sh	s1,-34(gp) # 200003da <_ZL9_cursor_x>
    2660:	fce19e23          	sh	a4,-36(gp) # 200003d8 <_ZL9_cursor_y>
    2664:	f18fe0ef          	jal	ra,d7c <_Z9tft_printPKch>
    2668:	06700713          	li	a4,103
    266c:	4589                	li	a1,2
    266e:	fce19e23          	sh	a4,-36(gp) # 200003d8 <_ZL9_cursor_y>
    2672:	c3418513          	addi	a0,gp,-972 # 20000030 <_ZL6title3.lto_priv.1>
    2676:	7e000713          	li	a4,2016
    267a:	c6e19123          	sh	a4,-926(gp) # 2000005e <_ZL6_color>
    267e:	fc919f23          	sh	s1,-34(gp) # 200003da <_ZL9_cursor_x>
    2682:	efafe0ef          	jal	ra,d7c <_Z9tft_printPKch>
    2686:	005b9537          	lui	a0,0x5b9
    268a:	d8050513          	addi	a0,a0,-640 # 5b8d80 <fix_fft.cpp.5eff4be4+0x5aff78>
    268e:	af2fe0ef          	jal	ra,980 <DelaySysTick>
    2692:	08700693          	li	a3,135
    2696:	0f000613          	li	a2,240
    269a:	4581                	li	a1,0
    269c:	4501                	li	a0,0
    269e:	90bfe0ef          	jal	ra,fa8 <_Z13tft_fill_rectttttt.constprop.0>
    26a2:	46fd                	li	a3,31
    26a4:	0f000613          	li	a2,240
    26a8:	4581                	li	a1,0
    26aa:	4501                	li	a0,0
    26ac:	f5cfe0ef          	jal	ra,e08 <_ZL21_tft_draw_fast_h_linessst>
    26b0:	46fd                	li	a3,31
    26b2:	0f000613          	li	a2,240
    26b6:	07e00593          	li	a1,126
    26ba:	4501                	li	a0,0
    26bc:	f4cfe0ef          	jal	ra,e08 <_ZL21_tft_draw_fast_h_linessst>
    26c0:	46fd                	li	a3,31
    26c2:	07f00613          	li	a2,127
    26c6:	4581                	li	a1,0
    26c8:	4501                	li	a0,0
    26ca:	ee0fe0ef          	jal	ra,daa <_ZL21_tft_draw_fast_v_linessst>
    26ce:	46fd                	li	a3,31
    26d0:	07f00613          	li	a2,127
    26d4:	4581                	li	a1,0
    26d6:	0ef00513          	li	a0,239
    26da:	ed0fe0ef          	jal	ra,daa <_ZL21_tft_draw_fast_v_linessst>
    26de:	07e00713          	li	a4,126
    26e2:	650d                	lui	a0,0x3
    26e4:	fce19e23          	sh	a4,-36(gp) # 200003d8 <_ZL9_cursor_y>
    26e8:	47fd                	li	a5,31
    26ea:	4585                	li	a1,1
    26ec:	f8450513          	addi	a0,a0,-124 # 2f84 <__clz_tab+0x308>
    26f0:	fc919f23          	sh	s1,-34(gp) # 200003da <_ZL9_cursor_x>
    26f4:	c6f19123          	sh	a5,-926(gp) # 2000005e <_ZL6_color>
    26f8:	e84fe0ef          	jal	ra,d7c <_Z9tft_printPKch>
    26fc:	c802                	sw	zero,16(sp)
    26fe:	b4afe0ef          	jal	ra,a48 <_Z11check_inputv>
    2702:	4785                	li	a5,1
    2704:	1af51563          	bne	a0,a5,28ae <main+0x934>
    2708:	001b7537          	lui	a0,0x1b7
    270c:	74050513          	addi	a0,a0,1856 # 1b7740 <fix_fft.cpp.5eff4be4+0x1ae938>
    2710:	a70fe0ef          	jal	ra,980 <DelaySysTick>
    2714:	b6b1                	j	2260 <main+0x2e6>
    2716:	843a                	mv	s0,a4
    2718:	b1f9                	j	23e6 <main+0x46c>
    271a:	01069793          	slli	a5,a3,0x10
    271e:	d607dae3          	bgez	a5,2492 <main+0x518>
    2722:	4681                	li	a3,0
    2724:	b3bd                	j	2492 <main+0x518>
    2726:	4782                	lw	a5,0(sp)
    2728:	c7bd                	beqz	a5,2796 <main+0x81c>
    272a:	e8019823          	sh	zero,-368(gp) # 2000028c <_ZL4stop>
    272e:	e941a403          	lw	s0,-364(gp) # 20000290 <_ZL12hightimesavg>
    2732:	e019                	bnez	s0,2738 <main+0x7be>
    2734:	e981a403          	lw	s0,-360(gp) # 20000294 <_ZL12highduration>
    2738:	e000f7b7          	lui	a5,0xe000f
    273c:	4788                	lw	a0,8(a5)
    273e:	6585                	lui	a1,0x1
    2740:	77058593          	addi	a1,a1,1904 # 1770 <_Z6docodePcS_.constprop.0+0x310>
    2744:	8bcfe0ef          	jal	ra,800 <__hidden___udivsi3>
    2748:	ea01a783          	lw	a5,-352(gp) # 2000029c <_ZL13startttimelow>
    274c:	8d1d                	sub	a0,a0,a5
    274e:	00141793          	slli	a5,s0,0x1
    2752:	97a2                	add	a5,a5,s0
    2754:	0786                	slli	a5,a5,0x1
    2756:	00a7fe63          	bgeu	a5,a0,2772 <main+0x7f8>
    275a:	e901d783          	lhu	a5,-368(gp) # 2000028c <_ZL4stop>
    275e:	eb91                	bnez	a5,2772 <main+0x7f8>
    2760:	d01fe0ef          	jal	ra,1460 <_Z6docodePcS_.constprop.0>
    2764:	8fdfe0ef          	jal	ra,1060 <_ZL11decodeAsciis.isra.0>
    2768:	e6018e23          	sb	zero,-388(gp) # 20000278 <_ZL4code>
    276c:	4785                	li	a5,1
    276e:	e8f19823          	sh	a5,-368(gp) # 2000028c <_ZL4stop>
    2772:	4702                	lw	a4,0(sp)
    2774:	4785                	li	a5,1
    2776:	12f71863          	bne	a4,a5,28a6 <main+0x92c>
    277a:	400117b7          	lui	a5,0x40011
    277e:	cb98                	sw	a4,16(a5)
    2780:	c1ffe0ef          	jal	ra,139e <_ZL17updateinfolinelcdv>
    2784:	eb21d703          	lhu	a4,-334(gp) # 200002ae <_ZL9realstate>
    2788:	eae19823          	sh	a4,-336(gp) # 200002ac <_ZL15realstatebefore>
    278c:	eaa1d703          	lhu	a4,-342(gp) # 200002a6 <_ZL13filteredstate>
    2790:	eae19423          	sh	a4,-344(gp) # 200002a4 <_ZL19filteredstatebefore>
    2794:	b659                	j	231a <main+0x3a0>
    2796:	e000f437          	lui	s0,0xe000f
    279a:	4408                	lw	a0,8(s0)
    279c:	6785                	lui	a5,0x1
    279e:	77078593          	addi	a1,a5,1904 # 1770 <_Z6docodePcS_.constprop.0+0x310>
    27a2:	c236                	sw	a3,4(sp)
    27a4:	85cfe0ef          	jal	ra,800 <__hidden___udivsi3>
    27a8:	eaa1a023          	sw	a0,-352(gp) # 2000029c <_ZL13startttimelow>
    27ac:	4408                	lw	a0,8(s0)
    27ae:	6785                	lui	a5,0x1
    27b0:	77078593          	addi	a1,a5,1904 # 1770 <_Z6docodePcS_.constprop.0+0x310>
    27b4:	84cfe0ef          	jal	ra,800 <__hidden___udivsi3>
    27b8:	ea41a783          	lw	a5,-348(gp) # 200002a0 <_ZL13starttimehigh>
    27bc:	4692                	lw	a3,4(sp)
    27be:	40f50433          	sub	s0,a0,a5
    27c2:	e881ac23          	sw	s0,-360(gp) # 20000294 <_ZL12highduration>
    27c6:	00169513          	slli	a0,a3,0x1
    27ca:	00a46363          	bltu	s0,a0,27d0 <main+0x856>
    27ce:	e699                	bnez	a3,27dc <main+0x862>
    27d0:	458d                	li	a1,3
    27d2:	9522                	add	a0,a0,s0
    27d4:	82cfe0ef          	jal	ra,800 <__hidden___udivsi3>
    27d8:	e8a1aa23          	sw	a0,-364(gp) # 20000290 <_ZL12hightimesavg>
    27dc:	e941a783          	lw	a5,-364(gp) # 20000290 <_ZL12hightimesavg>
    27e0:	00279713          	slli	a4,a5,0x2
    27e4:	973e                	add	a4,a4,a5
    27e6:	00877563          	bgeu	a4,s0,27f0 <main+0x876>
    27ea:	97a2                	add	a5,a5,s0
    27ec:	e8f1aa23          	sw	a5,-364(gp) # 20000290 <_ZL12hightimesavg>
    27f0:	f2048fe3          	beqz	s1,272e <main+0x7b4>
    27f4:	e941a483          	lw	s1,-364(gp) # 20000290 <_ZL12hightimesavg>
    27f8:	e8019823          	sh	zero,-368(gp) # 2000028c <_ZL4stop>
    27fc:	00149793          	slli	a5,s1,0x1
    2800:	c23e                	sw	a5,4(sp)
    2802:	04f46663          	bltu	s0,a5,284e <main+0x8d4>
    2806:	00149793          	slli	a5,s1,0x1
    280a:	f287f2e3          	bgeu	a5,s0,272e <main+0x7b4>
    280e:	00978533          	add	a0,a5,s1
    2812:	0506                	slli	a0,a0,0x1
    2814:	f0a47de3          	bgeu	s0,a0,272e <main+0x7b4>
    2818:	658d                	lui	a1,0x3
    281a:	e7058593          	addi	a1,a1,-400 # 2e70 <__clz_tab+0x1f4>
    281e:	e7c18513          	addi	a0,gp,-388 # 20000278 <_ZL4code>
    2822:	2181                	jal	2c62 <strcat>
    2824:	458d                	li	a1,3
    2826:	8522                	mv	a0,s0
    2828:	fd9fd0ef          	jal	ra,800 <__hidden___udivsi3>
    282c:	85aa                	mv	a1,a0
    282e:	4b000513          	li	a0,1200
    2832:	fcffd0ef          	jal	ra,800 <__hidden___udivsi3>
    2836:	fe21d783          	lhu	a5,-30(gp) # 200003de <_ZL3wpm>
    283a:	953e                	add	a0,a0,a5
    283c:	8105                	srli	a0,a0,0x1
    283e:	fea19123          	sh	a0,-30(gp) # 200003de <_ZL3wpm>
    2842:	b5f5                	j	272e <main+0x7b4>
    2844:	4702                	lw	a4,0(sp)
    2846:	4785                	li	a5,1
    2848:	d6f701e3          	beq	a4,a5,25aa <main+0x630>
    284c:	b5cd                	j	272e <main+0x7b4>
    284e:	8526                	mv	a0,s1
    2850:	f31fd0ef          	jal	ra,780 <__floatunsidf>
    2854:	6711                	lui	a4,0x4
    2856:	89872603          	lw	a2,-1896(a4) # 3898 <_ZL4tone+0x10>
    285a:	89c72683          	lw	a3,-1892(a4)
    285e:	9d7fd0ef          	jal	ra,234 <__muldf3>
    2862:	c42a                	sw	a0,8(sp)
    2864:	8522                	mv	a0,s0
    2866:	c22e                	sw	a1,4(sp)
    2868:	f19fd0ef          	jal	ra,780 <__floatunsidf>
    286c:	4322                	lw	t1,8(sp)
    286e:	4712                	lw	a4,4(sp)
    2870:	862a                	mv	a2,a0
    2872:	86ae                	mv	a3,a1
    2874:	851a                	mv	a0,t1
    2876:	85ba                	mv	a1,a4
    2878:	8f3fd0ef          	jal	ra,16a <__ledf2>
    287c:	ea0559e3          	bgez	a0,272e <main+0x7b4>
    2880:	658d                	lui	a1,0x3
    2882:	e6858593          	addi	a1,a1,-408 # 2e68 <__clz_tab+0x1ec>
    2886:	e7c18513          	addi	a0,gp,-388 # 20000278 <_ZL4code>
    288a:	2ee1                	jal	2c62 <strcat>
    288c:	bfad                	j	2806 <main+0x88c>
    288e:	c619                	beqz	a2,289c <main+0x922>
    2890:	bd1fe0ef          	jal	ra,1460 <_Z6docodePcS_.constprop.0>
    2894:	fccfe0ef          	jal	ra,1060 <_ZL11decodeAsciis.isra.0>
    2898:	e6018e23          	sb	zero,-388(gp) # 20000278 <_ZL4code>
    289c:	02000513          	li	a0,32
    28a0:	fc0fe0ef          	jal	ra,1060 <_ZL11decodeAsciis.isra.0>
    28a4:	b569                	j	272e <main+0x7b4>
    28a6:	400117b7          	lui	a5,0x40011
    28aa:	6741                	lui	a4,0x10
    28ac:	bdc9                	j	277e <main+0x804>
    28ae:	400117b7          	lui	a5,0x40011
    28b2:	40078793          	addi	a5,a5,1024 # 40011400 <_eusrstack+0x20010c00>
    28b6:	04000713          	li	a4,64
    28ba:	cb98                	sw	a4,16(a5)
    28bc:	eb818793          	addi	a5,gp,-328 # 200002b4 <buf>
    28c0:	eb818493          	addi	s1,gp,-328 # 200002b4 <buf>
    28c4:	f3818713          	addi	a4,gp,-200 # 20000334 <buf+0x80>
    28c8:	4401                	li	s0,0
    28ca:	c43a                	sw	a4,8(sp)
    28cc:	e000f637          	lui	a2,0xe000f
    28d0:	4608                	lw	a0,8(a2)
    28d2:	4599                	li	a1,6
    28d4:	c63e                	sw	a5,12(sp)
    28d6:	f2bfd0ef          	jal	ra,800 <__hidden___udivsi3>
    28da:	c22a                	sw	a0,4(sp)
    28dc:	f4afe0ef          	jal	ra,1026 <_ZL15GPIO_analogRead18GPIO_analog_inputs.constprop.0>
    28e0:	8109                	srli	a0,a0,0x2
    28e2:	0ff57613          	zext.b	a2,a0
    28e6:	00c40733          	add	a4,s0,a2
    28ea:	eb41d603          	lhu	a2,-332(gp) # 200002b0 <sampling_period_us>
    28ee:	47b2                	lw	a5,12(sp)
    28f0:	01071413          	slli	s0,a4,0x10
    28f4:	8041                	srli	s0,s0,0x10
    28f6:	08a48023          	sb	a0,128(s1)
    28fa:	e000f337          	lui	t1,0xe000f
    28fe:	00832503          	lw	a0,8(t1) # e000f008 <_eusrstack+0xc000e808>
    2902:	4599                	li	a1,6
    2904:	ca3e                	sw	a5,20(sp)
    2906:	c632                	sw	a2,12(sp)
    2908:	ef9fd0ef          	jal	ra,800 <__hidden___udivsi3>
    290c:	4792                	lw	a5,4(sp)
    290e:	4632                	lw	a2,12(sp)
    2910:	e000f337          	lui	t1,0xe000f
    2914:	8d1d                	sub	a0,a0,a5
    2916:	47d2                	lw	a5,20(sp)
    2918:	fec563e3          	bltu	a0,a2,28fe <main+0x984>
    291c:	0485                	addi	s1,s1,1
    291e:	f3818713          	addi	a4,gp,-200 # 20000334 <buf+0x80>
    2922:	fa9715e3          	bne	a4,s1,28cc <main+0x952>
    2926:	400116b7          	lui	a3,0x40011
    292a:	40068693          	addi	a3,a3,1024 # 40011400 <_eusrstack+0x20010c00>
    292e:	00400637          	lui	a2,0x400
    2932:	ca90                	sw	a2,16(a3)
    2934:	873e                	mv	a4,a5
    2936:	00745693          	srli	a3,s0,0x7
    293a:	08074603          	lbu	a2,128(a4) # 10080 <fix_fft.cpp.5eff4be4+0x7278>
    293e:	08070023          	sb	zero,128(a4)
    2942:	0705                	addi	a4,a4,1
    2944:	8e15                	sub	a2,a2,a3
    2946:	fec70fa3          	sb	a2,-1(a4)
    294a:	f3818613          	addi	a2,gp,-200 # 20000334 <buf+0x80>
    294e:	fee616e3          	bne	a2,a4,293a <main+0x9c0>
    2952:	4582                	lw	a1,0(sp)
    2954:	863e                	mv	a2,a5
    2956:	4281                	li	t0,0
    2958:	07f00313          	li	t1,127
    295c:	08000513          	li	a0,128
    2960:	08000713          	li	a4,128
    2964:	8705                	srai	a4,a4,0x1
    2966:	005706b3          	add	a3,a4,t0
    296a:	fed34de3          	blt	t1,a3,2964 <main+0x9ea>
    296e:	fff70693          	addi	a3,a4,-1
    2972:	0056f6b3          	and	a3,a3,t0
    2976:	00d702b3          	add	t0,a4,a3
    297a:	0255d563          	bge	a1,t0,29a4 <main+0xa2a>
    297e:	eb818713          	addi	a4,gp,-328 # 200002b4 <buf>
    2982:	9716                	add	a4,a4,t0
    2984:	00070383          	lb	t2,0(a4)
    2988:	00160683          	lb	a3,1(a2) # 400001 <fix_fft.cpp.5eff4be4+0x3f71f9>
    298c:	007600a3          	sb	t2,1(a2)
    2990:	a314                	sb	a3,0(a4)
    2992:	4722                	lw	a4,8(sp)
    2994:	08160683          	lb	a3,129(a2)
    2998:	9716                	add	a4,a4,t0
    299a:	00070383          	lb	t2,0(a4)
    299e:	087600a3          	sb	t2,129(a2)
    29a2:	a314                	sb	a3,0(a4)
    29a4:	0585                	addi	a1,a1,1
    29a6:	0605                	addi	a2,a2,1
    29a8:	faa59ce3          	bne	a1,a0,2960 <main+0x9e6>
    29ac:	471d                	li	a4,7
    29ae:	c43a                	sw	a4,8(sp)
    29b0:	4602                	lw	a2,0(sp)
    29b2:	670d                	lui	a4,0x3
    29b4:	7b070713          	addi	a4,a4,1968 # 37b0 <_ZL8Sinewave>
    29b8:	d03a                	sw	a4,32(sp)
    29ba:	ce32                	sw	a2,28(sp)
    29bc:	c23e                	sw	a5,4(sp)
    29be:	0606                	slli	a2,a2,0x1
    29c0:	4381                	li	t2,0
    29c2:	4722                	lw	a4,8(sp)
    29c4:	5682                	lw	a3,32(sp)
    29c6:	c61e                	sw	t2,12(sp)
    29c8:	00e39733          	sll	a4,t2,a4
    29cc:	9736                	add	a4,a4,a3
    29ce:	04070683          	lb	a3,64(a4)
    29d2:	2318                	lbu	a4,0(a4)
    29d4:	8685                	srai	a3,a3,0x1
    29d6:	40e00733          	neg	a4,a4
    29da:	0762                	slli	a4,a4,0x18
    29dc:	8761                	srai	a4,a4,0x18
    29de:	8705                	srai	a4,a4,0x1
    29e0:	ca36                	sw	a3,20(sp)
    29e2:	cc3a                	sw	a4,24(sp)
    29e4:	4692                	lw	a3,4(sp)
    29e6:	4772                	lw	a4,28(sp)
    29e8:	8336                	mv	t1,a3
    29ea:	00d702b3          	add	t0,a4,a3
    29ee:	00028403          	lb	s0,0(t0)
    29f2:	4552                	lw	a0,20(sp)
    29f4:	de3e                	sw	a5,60(sp)
    29f6:	85a2                	mv	a1,s0
    29f8:	dc1a                	sw	t1,56(sp)
    29fa:	da32                	sw	a2,52(sp)
    29fc:	d81e                	sw	t2,48(sp)
    29fe:	d216                	sw	t0,36(sp)
    2a00:	de1fd0ef          	jal	ra,7e0 <__mulsi3>
    2a04:	5292                	lw	t0,36(sp)
    2a06:	40655693          	srai	a3,a0,0x6
    2a0a:	8a85                	andi	a3,a3,1
    2a0c:	08028483          	lb	s1,128(t0)
    2a10:	851d                	srai	a0,a0,0x7
    2a12:	96aa                	add	a3,a3,a0
    2a14:	4562                	lw	a0,24(sp)
    2a16:	0ff6f693          	zext.b	a3,a3
    2a1a:	85a6                	mv	a1,s1
    2a1c:	d636                	sw	a3,44(sp)
    2a1e:	d416                	sw	t0,40(sp)
    2a20:	dc1fd0ef          	jal	ra,7e0 <__mulsi3>
    2a24:	40655713          	srai	a4,a0,0x6
    2a28:	45d2                	lw	a1,20(sp)
    2a2a:	851d                	srai	a0,a0,0x7
    2a2c:	8b05                	andi	a4,a4,1
    2a2e:	972a                	add	a4,a4,a0
    2a30:	0ff77713          	zext.b	a4,a4
    2a34:	8526                	mv	a0,s1
    2a36:	d23a                	sw	a4,36(sp)
    2a38:	da9fd0ef          	jal	ra,7e0 <__mulsi3>
    2a3c:	84aa                	mv	s1,a0
    2a3e:	4562                	lw	a0,24(sp)
    2a40:	85a2                	mv	a1,s0
    2a42:	4074d413          	srai	s0,s1,0x7
    2a46:	d9bfd0ef          	jal	ra,7e0 <__mulsi3>
    2a4a:	5362                	lw	t1,56(sp)
    2a4c:	40755593          	srai	a1,a0,0x7
    2a50:	8499                	srai	s1,s1,0x6
    2a52:	95a2                	add	a1,a1,s0
    2a54:	8885                	andi	s1,s1,1
    2a56:	8519                	srai	a0,a0,0x6
    2a58:	95a6                	add	a1,a1,s1
    2a5a:	8905                	andi	a0,a0,1
    2a5c:	952e                	add	a0,a0,a1
    2a5e:	00030583          	lb	a1,0(t1) # e000f000 <_eusrstack+0xc000e800>
    2a62:	08030403          	lb	s0,128(t1)
    2a66:	5712                	lw	a4,36(sp)
    2a68:	56b2                	lw	a3,44(sp)
    2a6a:	8585                	srai	a1,a1,0x1
    2a6c:	52a2                	lw	t0,40(sp)
    2a6e:	0ff5f593          	zext.b	a1,a1
    2a72:	5652                	lw	a2,52(sp)
    2a74:	00e584b3          	add	s1,a1,a4
    2a78:	47b2                	lw	a5,12(sp)
    2a7a:	8405                	srai	s0,s0,0x1
    2a7c:	8c95                	sub	s1,s1,a3
    2a7e:	0ff57513          	zext.b	a0,a0
    2a82:	0ff47413          	zext.b	s0,s0
    2a86:	00928023          	sb	s1,0(t0)
    2a8a:	95b6                	add	a1,a1,a3
    2a8c:	40a404b3          	sub	s1,s0,a0
    2a90:	08928023          	sb	s1,128(t0)
    2a94:	97b2                	add	a5,a5,a2
    2a96:	8d99                	sub	a1,a1,a4
    2a98:	9522                	add	a0,a0,s0
    2a9a:	00b30023          	sb	a1,0(t1)
    2a9e:	08a30023          	sb	a0,128(t1)
    2aa2:	c63e                	sw	a5,12(sp)
    2aa4:	873e                	mv	a4,a5
    2aa6:	07f00693          	li	a3,127
    2aaa:	53c2                	lw	t2,48(sp)
    2aac:	57f2                	lw	a5,60(sp)
    2aae:	92b2                	add	t0,t0,a2
    2ab0:	9332                	add	t1,t1,a2
    2ab2:	f2e6dee3          	bge	a3,a4,29ee <main+0xa74>
    2ab6:	4712                	lw	a4,4(sp)
    2ab8:	0385                	addi	t2,t2,1
    2aba:	0705                	addi	a4,a4,1
    2abc:	c23a                	sw	a4,4(sp)
    2abe:	4772                	lw	a4,28(sp)
    2ac0:	f0e391e3          	bne	t2,a4,29c2 <main+0xa48>
    2ac4:	4722                	lw	a4,8(sp)
    2ac6:	177d                	addi	a4,a4,-1
    2ac8:	c43a                	sw	a4,8(sp)
    2aca:	ee0718e3          	bnez	a4,29ba <main+0xa40>
    2ace:	04078593          	addi	a1,a5,64
    2ad2:	00078683          	lb	a3,0(a5)
    2ad6:	2398                	lbu	a4,0(a5)
    2ad8:	08078603          	lb	a2,128(a5)
    2adc:	869d                	srai	a3,a3,0x7
    2ade:	8f35                	xor	a4,a4,a3
    2ae0:	8f15                	sub	a4,a4,a3
    2ae2:	0807c683          	lbu	a3,128(a5)
    2ae6:	861d                	srai	a2,a2,0x7
    2ae8:	0785                	addi	a5,a5,1
    2aea:	8eb1                	xor	a3,a3,a2
    2aec:	8e91                	sub	a3,a3,a2
    2aee:	9736                	add	a4,a4,a3
    2af0:	fee78fa3          	sb	a4,-1(a5)
    2af4:	fcf59fe3          	bne	a1,a5,2ad2 <main+0xb58>
    2af8:	03400693          	li	a3,52
    2afc:	0ee00613          	li	a2,238
    2b00:	45cd                	li	a1,19
    2b02:	4505                	li	a0,1
    2b04:	ca4fe0ef          	jal	ra,fa8 <_Z13tft_fill_rectttttt.constprop.0>
    2b08:	4761                	li	a4,24
    2b0a:	04700693          	li	a3,71
    2b0e:	04000613          	li	a2,64
    2b12:	4585                	li	a1,1
    2b14:	04000513          	li	a0,64
    2b18:	b50fe0ef          	jal	ra,e68 <_Z13tft_draw_linesssst>
    2b1c:	4761                	li	a4,24
    2b1e:	04700693          	li	a3,71
    2b22:	08000613          	li	a2,128
    2b26:	4585                	li	a1,1
    2b28:	08000513          	li	a0,128
    2b2c:	b3cfe0ef          	jal	ra,e68 <_Z13tft_draw_linesssst>
    2b30:	4405                	li	s0,1
    2b32:	4781                	li	a5,0
    2b34:	4301                	li	t1,0
    2b36:	eb818713          	addi	a4,gp,-328 # 200002b4 <buf>
    2b3a:	008703b3          	add	t2,a4,s0
    2b3e:	00038683          	lb	a3,0(t2)
    2b42:	00141613          	slli	a2,s0,0x1
    2b46:	9622                	add	a2,a2,s0
    2b48:	00169713          	slli	a4,a3,0x1
    2b4c:	01061493          	slli	s1,a2,0x10
    2b50:	9736                	add	a4,a4,a3
    2b52:	0642                	slli	a2,a2,0x10
    2b54:	03200693          	li	a3,50
    2b58:	80c1                	srli	s1,s1,0x10
    2b5a:	8641                	srai	a2,a2,0x10
    2b5c:	00e6d463          	bge	a3,a4,2b64 <main+0xbea>
    2b60:	03200713          	li	a4,50
    2b64:	0762                	slli	a4,a4,0x18
    2b66:	8761                	srai	a4,a4,0x18
    2b68:	04600693          	li	a3,70
    2b6c:	8e99                	sub	a3,a3,a4
    2b6e:	62c1                	lui	t0,0x10
    2b70:	06c2                	slli	a3,a3,0x10
    2b72:	86c1                	srai	a3,a3,0x10
    2b74:	fff28713          	addi	a4,t0,-1 # ffff <fix_fft.cpp.5eff4be4+0x71f7>
    2b78:	8532                	mv	a0,a2
    2b7a:	04600593          	li	a1,70
    2b7e:	ca1e                	sw	t2,20(sp)
    2b80:	c63e                	sw	a5,12(sp)
    2b82:	c41a                	sw	t1,8(sp)
    2b84:	c236                	sw	a3,4(sp)
    2b86:	ae2fe0ef          	jal	ra,e68 <_Z13tft_draw_linesssst>
    2b8a:	4692                	lw	a3,4(sp)
    2b8c:	00248613          	addi	a2,s1,2
    2b90:	00148513          	addi	a0,s1,1
    2b94:	62c1                	lui	t0,0x10
    2b96:	0642                	slli	a2,a2,0x10
    2b98:	0542                	slli	a0,a0,0x10
    2b9a:	fff28713          	addi	a4,t0,-1 # ffff <fix_fft.cpp.5eff4be4+0x71f7>
    2b9e:	85b6                	mv	a1,a3
    2ba0:	8641                	srai	a2,a2,0x10
    2ba2:	8541                	srai	a0,a0,0x10
    2ba4:	ac4fe0ef          	jal	ra,e68 <_Z13tft_draw_linesssst>
    2ba8:	00348613          	addi	a2,s1,3
    2bac:	4692                	lw	a3,4(sp)
    2bae:	0642                	slli	a2,a2,0x10
    2bb0:	8641                	srai	a2,a2,0x10
    2bb2:	62c1                	lui	t0,0x10
    2bb4:	fff28713          	addi	a4,t0,-1 # ffff <fix_fft.cpp.5eff4be4+0x71f7>
    2bb8:	04600593          	li	a1,70
    2bbc:	8532                	mv	a0,a2
    2bbe:	aaafe0ef          	jal	ra,e68 <_Z13tft_draw_linesssst>
    2bc2:	43d2                	lw	t2,20(sp)
    2bc4:	4322                	lw	t1,8(sp)
    2bc6:	47b2                	lw	a5,12(sp)
    2bc8:	00038703          	lb	a4,0(t2)
    2bcc:	00e35663          	bge	t1,a4,2bd8 <main+0xc5e>
    2bd0:	0ff77313          	zext.b	t1,a4
    2bd4:	0ff47793          	zext.b	a5,s0
    2bd8:	0405                	addi	s0,s0,1 # e000f001 <_eusrstack+0xc000e801>
    2bda:	03400713          	li	a4,52
    2bde:	f4e41ce3          	bne	s0,a4,2b36 <main+0xbbc>
    2be2:	00179413          	slli	s0,a5,0x1
    2be6:	943e                	add	s0,s0,a5
    2be8:	040e                	slli	s0,s0,0x3
    2bea:	8c1d                	sub	s0,s0,a5
    2bec:	0406                	slli	s0,s0,0x1
    2bee:	47c2                	lw	a5,16(sp)
    2bf0:	0442                	slli	s0,s0,0x10
    2bf2:	8041                	srli	s0,s0,0x10
    2bf4:	b0f405e3          	beq	s0,a5,26fe <main+0x784>
    2bf8:	478d                	li	a5,3
    2bfa:	0467fd63          	bgeu	a5,t1,2c54 <main+0xcda>
    2bfe:	01740693          	addi	a3,s0,23
    2c02:	06c2                	slli	a3,a3,0x10
    2c04:	660d                	lui	a2,0x3
    2c06:	82c1                	srli	a3,a3,0x10
    2c08:	fa060613          	addi	a2,a2,-96 # 2fa0 <__clz_tab+0x324>
    2c0c:	45c1                	li	a1,16
    2c0e:	0088                	addi	a0,sp,64
    2c10:	f78fe0ef          	jal	ra,1388 <mini_snprintf>
    2c14:	0088                	addi	a0,sp,64
    2c16:	d5efe0ef          	jal	ra,1174 <strlen>
    2c1a:	00251793          	slli	a5,a0,0x2
    2c1e:	8d1d                	sub	a0,a0,a5
    2c20:	050a                	slli	a0,a0,0x2
    2c22:	0c250513          	addi	a0,a0,194
    2c26:	fca19f23          	sh	a0,-34(gp) # 200003da <_ZL9_cursor_x>
    2c2a:	03800713          	li	a4,56
    2c2e:	fce19e23          	sh	a4,-36(gp) # 200003d8 <_ZL9_cursor_y>
    2c32:	46c9                	li	a3,18
    2c34:	5701                	li	a4,-32
    2c36:	09e00613          	li	a2,158
    2c3a:	4585                	li	a1,1
    2c3c:	05000513          	li	a0,80
    2c40:	c6e19123          	sh	a4,-926(gp) # 2000005e <_ZL6_color>
    2c44:	b64fe0ef          	jal	ra,fa8 <_Z13tft_fill_rectttttt.constprop.0>
    2c48:	4589                	li	a1,2
    2c4a:	0088                	addi	a0,sp,64
    2c4c:	930fe0ef          	jal	ra,d7c <_Z9tft_printPKch>
    2c50:	c822                	sw	s0,16(sp)
    2c52:	b475                	j	26fe <main+0x784>
    2c54:	658d                	lui	a1,0x3
    2c56:	fa858593          	addi	a1,a1,-88 # 2fa8 <__clz_tab+0x32c>
    2c5a:	0088                	addi	a0,sp,64
    2c5c:	fd0fe0ef          	jal	ra,142c <strcpy>
    2c60:	bf55                	j	2c14 <main+0xc9a>

00002c62 <strcat>:
    2c62:	87aa                	mv	a5,a0
    2c64:	2394                	lbu	a3,0(a5)
    2c66:	873e                	mv	a4,a5
    2c68:	0785                	addi	a5,a5,1
    2c6a:	feed                	bnez	a3,2c64 <strcat+0x2>
    2c6c:	219c                	lbu	a5,0(a1)
    2c6e:	0585                	addi	a1,a1,1
    2c70:	0705                	addi	a4,a4,1
    2c72:	fef70fa3          	sb	a5,-1(a4)
    2c76:	fbfd                	bnez	a5,2c6c <strcat+0xa>
    2c78:	8082                	ret
	...

00002c7c <__clz_tab>:
    2c7c:	0100 0202 0303 0303 0404 0404 0404 0404     ................
    2c8c:	0505 0505 0505 0505 0505 0505 0505 0505     ................
    2c9c:	0606 0606 0606 0606 0606 0606 0606 0606     ................
    2cac:	0606 0606 0606 0606 0606 0606 0606 0606     ................
    2cbc:	0707 0707 0707 0707 0707 0707 0707 0707     ................
    2ccc:	0707 0707 0707 0707 0707 0707 0707 0707     ................
    2cdc:	0707 0707 0707 0707 0707 0707 0707 0707     ................
    2cec:	0707 0707 0707 0707 0707 0707 0707 0707     ................
    2cfc:	0808 0808 0808 0808 0808 0808 0808 0808     ................
    2d0c:	0808 0808 0808 0808 0808 0808 0808 0808     ................
    2d1c:	0808 0808 0808 0808 0808 0808 0808 0808     ................
    2d2c:	0808 0808 0808 0808 0808 0808 0808 0808     ................
    2d3c:	0808 0808 0808 0808 0808 0808 0808 0808     ................
    2d4c:	0808 0808 0808 0808 0808 0808 0808 0808     ................
    2d5c:	0808 0808 0808 0808 0808 0808 0808 0808     ................
    2d6c:	0808 0808 0808 0808 0808 0808 0808 0808     ................
    2d7c:	5355 0000 504a 0000 3225 5764 4d50 2520     US..JP..%2dWPM %
    2d8c:	2573 0073 2e2d 2d2e 2d2d 0000 2e2e 2d2e     s%s.-..---.....-
    2d9c:	002e 0000 2d2e 2e2e 2e2d 0000 2e2d 2e2e     .....-..-...-...
    2dac:	0000 0000 2e2d 2e2d 0000 0000 2e2d 002e     ....-.-.....-...
    2dbc:	2e2e 2e2d 0000 0000 2d2d 002e 2e2e 2e2e     ..-.....--......
    2dcc:	0000 0000 2d2e 2d2d 0000 0000 2e2d 002d     .....---....-.-.
    2ddc:	2d2e 2e2e 0000 0000 2d2d 002d 2d2e 2e2d     .-......---..--.
    2dec:	0000 0000 2d2d 2d2e 0000 0000 2d2e 002e     ....--.-.....-..
    2dfc:	2e2e 002e 2e2e 2d2e 0000 0000 2d2e 002d     .......-.....--.
    2e0c:	2e2d 2d2e 0000 0000 2e2d 2d2d 0000 0000     -..-....-.--....
    2e1c:	2d2d 2e2e 0000 0000 2d2e 2d2d 002d 0000     --.......----...
    2e2c:	2e2e 2d2d 002d 0000 2e2e 2d2e 002d 0000     ..---......--...
    2e3c:	2e2e 2e2e 002d 0000 2e2e 2e2e 002e 0000     ....-...........
    2e4c:	2e2d 2e2e 002e 0000 2d2d 2e2e 002e 0000     -.......--......
    2e5c:	2d2d 2e2d 002e 0000 2d2d 2d2d 002e 0000     ---.....----....
    2e6c:	2d2d 2d2d 002d 0000 2e2e 2d2d 2e2e 0000     -----.....--....
    2e7c:	2d2e 2d2e 2d2e 0000 2d2d 2e2e 2d2d 0000     .-.-.-..--..--..
    2e8c:	2e2d 2e2d 2d2d 0000 2d2e 2e2d 2e2d 0000     -.-.--...--.-...
    2e9c:	2d2d 2e2d 2e2e 0000 2e2d 2e2e 2d2e 0000     ---.....-....-..
    2eac:	2e2d 2d2e 002e 0000 2e2d 2d2d 2d2e 0000     -..-....-.--.-..
    2ebc:	2d2e 2e2e 002e 0000 2e2e 2d2e 2e2e 002d     .-.........-..-.
    2ecc:	2d2e 2d2e 002e 0000 2e2d 2d2d 002e 0000     .-.-....-.--....
    2edc:	2e2d 2e2e 002d 0000 2e2e 2d2e 2d2e 0000     -...-......-.-..
    2eec:	2d2d 2d2e 002d 0000 2e2d 2d2d 002d 0000     --.--...-.---...
    2efc:	2e2d 2e2d 002e 0000 2d2d 2d2d 0000 0000     -.-.....----....
    2f0c:	2e2d 2e2d 002d 0000 2d2d 2d2e 002e 0000     -.-.-...--.-....
    2f1c:	2d2d 2e2d 002d 0000 2d2e 2d2d 002e 0000     ---.-....---....
    2f2c:	2d2d 2e2d 0000 0000 2d2e 2d2e 002d 0000     ---......-.--...
    2f3c:	2e2e 2e2d 002e 0000 2e2e 2d2d 0000 0000     ..-.......--....
    2f4c:	2d2d 2e2e 002d 0000 2e2e 2e2d 002d 0000     --..-.....-.-...
    2f5c:	2e2d 2d2e 002d 0000 2d2e 2d2e 0000 0000     -..--....-.-....
    2f6c:	2e2e 2d2d 002e 0000 2d2e 2e2d 002d 0000     ..--.....--.-...
    2f7c:	2d2e 2d2e 2e2e 0000 4830 207a 2020 2020     .-.-....0Hz     
    2f8c:	3120 484b 207a 2020 2020 2020 4b32 7a48      1KHz       2KHz
    2f9c:	0000 0000 3425 4864 007a 0000 2020 2020     ....%4dHz...    
    2fac:	7a48 0000                                   Hz..

00002fb0 <_ZL5fontk>:
	...
    30b8:	0000 004f 0000 0000 0700 0700 0000 0000     ..O.............
    30c8:	7f14 7f14 0014 0000 2a24 2a7f 0012 0000     ........$*.*....
    30d8:	1323 6408 0062 0000 4936 2255 0050 0000     #..db...6IU"P...
    30e8:	0500 0003 0000 0000 1c00 4122 0000 0000     .........."A....
    30f8:	4100 1c22 0000 0000 0814 083e 0014 0000     .A".......>.....
    3108:	0808 083e 0008 0000 5000 0030 0000 0000     ..>......P0.....
    3118:	0808 0808 0008 0000 6000 0060 0000 0000     .........``.....
    3128:	1020 0408 0002 0000 513e 4549 003e 0000      .......>QIE>...
    3138:	4200 407f 0000 0000 6142 4951 0046 0000     .B.@....BaQIF...
    3148:	4121 4b45 0031 0000 1418 7f12 0010 0000     !AEK1...........
    3158:	4527 4545 0039 0000 4a3c 4949 0030 0000     'EEE9...<JII0...
    3168:	0103 0971 0007 0000 4936 4949 0036 0000     ..q.....6III6...
    3178:	4906 2949 001e 0000 3600 0036 0000 0000     .II).....66.....
    3188:	5600 0036 0000 0000 1408 4122 0000 0000     .V6......."A....
    3198:	1414 1414 0014 0000 4100 1422 0008 0000     .........A".....
    31a8:	0102 0951 0006 0000 4932 4179 003e 0000     ..Q.....2IyA>...
    31b8:	117e 1111 007e 0000 497f 4949 0036 0000     ~...~....III6...
    31c8:	413e 4141 0022 0000 417f 2241 001c 0000     >AAA"....AA"....
    31d8:	497f 4949 0041 0000 097f 0909 0001 0000     .IIIA...........
    31e8:	413e 4949 007a 0000 087f 0808 007f 0000     >AIIz...........
    31f8:	4100 417f 0000 0000 4020 3f41 0001 0000     .A.A.... @A?....
    3208:	087f 2214 0041 0000 407f 4040 0040 0000     ..."A....@@@@...
    3218:	027f 020c 007f 0000 047f 1008 007f 0000     ................
    3228:	413e 4141 003e 0000 097f 0909 0006 0000     >AAA>...........
    3238:	413e 2151 005e 0000 097f 2919 0046 0000     >AQ!^......)F...
    3248:	4946 4949 0031 0000 0101 017f 0001 0000     FIII1...........
    3258:	403f 4040 003f 0000 201f 2040 001f 0000     ?@@@?.... @ ....
    3268:	403f 4038 003f 0000 1463 1408 0063 0000     ?@8@?...c...c...
    3278:	0807 0870 0007 0000 5161 4549 0043 0000     ..p.....aQIEC...
    3288:	7f00 4141 0000 0000 1615 167c 0015 0000     ..AA......|.....
    3298:	4100 7f41 0000 0000 0204 0201 0004 0000     .AA.............
    32a8:	4040 4040 0040 0000 0100 0402 0000 0000     @@@@@...........
    32b8:	5420 5454 0078 0000 487f 4444 0038 0000      TTTx....HDD8...
    32c8:	4438 4444 0020 0000 4438 4844 007f 0000     8DDD ...8DDH....
    32d8:	5438 5454 0018 0000 7e08 0109 0002 0000     8TTT.....~......
    32e8:	520c 5252 003e 0000 087f 0404 0078 0000     .RRR>.......x...
    32f8:	4400 407d 0000 0000 4020 3d44 0000 0000     .D}@.... @D=....
    3308:	107f 4428 0000 0000 4100 407f 0000 0000     ..(D.....A.@....
    3318:	047c 0418 0078 0000 087c 0404 0078 0000     |...x...|...x...
    3328:	4438 4444 0038 0000 147c 1414 0008 0000     8DDD8...|.......
    3338:	1408 1814 007c 0000 087c 0404 0008 0000     ....|...|.......
    3348:	5448 5454 0020 0000 3f04 4044 0020 0000     HTTT ....?D@ ...
    3358:	403c 2040 007c 0000 201c 2040 001c 0000     <@@ |.... @ ....
    3368:	403c 4038 003c 0000 2844 2810 0044 0000     <@8@<...D(.(D...
    3378:	500c 5050 003c 0000 6444 4c54 0044 0000     .PPP<...DdTLD...
    3388:	0800 4136 0000 0000 0000 007f 0000 0000     ..6A............
    3398:	4100 0836 0000 0000 0808 1c2a 0008 0000     .A6.......*.....
    33a8:	1c08 082a 0008 0000 0000 0000 0000 0000     ..*.............
	...
    34b8:	5070 0070 0000 0000 0000 010f 0001 0000     pPp.............
    34c8:	4040 0078 0000 0000 2010 0040 0000 0000     @@x...... @.....
    34d8:	1800 0018 0000 0000 0a0a 2a4a 001e 0000     ..........J*....
    34e8:	4404 1434 000c 0000 1020 0478 0000 0000     .D4..... .x.....
    34f8:	0818 484c 0038 0000 4444 447c 0044 0000     ..LH8...DD|DD...
    3508:	2848 7c18 0008 0000 7c08 2808 0018 0000     H(.|.....|.(....
    3518:	4840 7848 0040 0000 5454 7c54 0000 0000     @HHx@...TTT|....
    3528:	0018 4058 0038 0000 0808 0808 0008 0000     ..X@8...........
    3538:	4101 093d 0007 0000 0810 027c 0001 0000     .A=.......|.....
    3548:	020e 2243 001e 0000 4242 427e 0042 0000     ..C"....BB~BB...
    3558:	1222 7f0a 0002 0000 3f42 4202 003e 0000     ".......B?.B>...
    3568:	0a0a 0a7f 000a 0000 4608 2242 001e 0000     .........FB"....
    3578:	0304 3e42 0002 0000 4242 4242 007e 0000     ..B>....BBBB~...
    3588:	4f02 1f22 0002 0000 4a4a 2040 001c 0000     .O".....JJ@ ....
    3598:	2242 2a12 0046 0000 3f02 4a42 0046 0000     B".*F....?BJF...
    35a8:	4806 2040 001e 0000 4608 324a 001e 0000     .H@ .....FJ2....
    35b8:	4a0a 093e 0008 0000 000e 204e 001e 0000     .J>.......N ....
    35c8:	4504 053d 0004 0000 7f00 1008 0000 0000     .E=.............
    35d8:	2444 041f 0004 0000 4240 4242 0040 0000     D$......@BBB@...
    35e8:	2a42 2a12 0006 0000 1222 167b 0022 0000     B*.*....".{."...
    35f8:	4000 1f20 0000 0000 0078 0402 0078 0000     .@ .....x...x...
    3608:	443f 4444 0044 0000 4202 2242 001e 0000     ?DDDD....BB"....
    3618:	0204 0804 0030 0000 0232 027f 0032 0000     ....0...2...2...
    3628:	1202 5222 000e 0000 2a00 2a2a 0040 0000     .."R.....***@...
    3638:	2438 2022 0070 0000 2840 2810 0006 0000     8$" p...@(.(....
    3648:	3e0a 4a4a 004a 0000 7f04 1404 000c 0000     .>JJJ...........
    3658:	4240 7e42 0040 0000 4a4a 4a4a 007e 0000     @BB~@...JJJJ~...
    3668:	0504 2545 001c 0000 400f 1f20 0000 0000     ..E%.....@ .....
    3678:	007c 407e 0030 0000 407e 1020 0008 0000     |.~@0...~@ .....
    3688:	427e 4242 007e 0000 020e 2242 001e 0000     ~BBB~.....B"....
    3698:	4242 2040 0018 0000 0402 0201 0000 0000     BB@ ............
    36a8:	0507 0007 0000 0000 4438 3048 004c 0000     ........8DH0L...
    36b8:	5520 5554 0078 0000 54f8 5454 0028 0000      UTUx....TTT(...
    36c8:	5428 4454 0020 0000 40fc 2040 007c 0000     (TTD ....@@ |...
    36d8:	4438 544c 0024 0000 48f0 4444 0038 0000     8DLT$....HDD8...
    36e8:	4438 4444 00fc 0000 4020 043c 0004 0000     8DDD.... @<.....
    36f8:	0404 0e00 0000 0000 0000 fd04 0000 0000     ................
    3708:	040a 000a 0000 0000 2418 247e 0010 0000     .........$~$....
    3718:	7f14 4054 0040 0000 097c 0505 0078 0000     ..T@@...|...x...
    3728:	4538 4544 0038 0000 48fc 4444 0038 0000     8EDE8....HDD8...
    3738:	4438 4844 00fc 0000 4a3c 4a4a 003c 0000     8DDH....<JJJ<...
    3748:	2830 2810 0018 0000 6458 6404 0058 0000     0(.(....Xd.dX...
    3758:	817c 4180 00fc 0000 5563 4149 0041 0000     |..A....cUIAA...
    3768:	3c44 7c04 0044 0000 2945 2911 0045 0000     D<.|D...E).)E...
    3778:	403c 4040 00fc 0000 1414 147c 0012 0000     <@@@......|.....
    3788:	3c44 1414 0074 0000 147c 141c 007c 0000     D<..t...|...|...
    3798:	0808 082a 0008 0000 0000 0000 0000 0000     ..*.............
    37a8:	ffff ffff 00ff 0000                         ........

000037b0 <_ZL8Sinewave>:
    37b0:	0300 0906 0f0c 1512 1c18 221f 2825 2e2b     ..........."%(+.
    37c0:	3330 3936 3f3c 4441 4947 4e4c 5351 5855     0369<?ADGILNQSUX
    37d0:	5c5a 605e 6462 6866 6c6a 6f6d 7270 7573     Z\^`bdfhjlmoprsu
    37e0:	7776 7978 7b7a 7c7c 7e7d 7f7e 7f7f 7f7f     vwxyz{||}~~.....
    37f0:	7f7f 7f7f 7f7f 7e7e 7c7d 7b7c 797a 7778     ......~~}||{zyxw
    3800:	7576 7273 6f70 6c6d 686a 6466 6062 5c5e     vusrpomljhfdb`^\
    3810:	585a 5355 4e51 494c 4447 3f41 393c 3336     ZXUSQNLIGDA?<963
    3820:	2e30 282b 2225 1c1f 1518 0f12 090c 0306     0.+(%"..........
    3830:	fd00 f7fa f1f4 ebee e4e8 dee1 d8db d2d5     ................
    3840:	cdd0 c7ca c1c4 bcbf b7b9 b2b4 adaf a8ab     ................
    3850:	a4a6 a0a2 9c9e 989a 9496 9193 8e90 8b8d     ................
    3860:	898a 8788 8586 8484 8283 8182 8181 8181     ................
    3870:	3620 3030 0000 0000 3820 3030 0000 0000      600.... 800....
    3880:	3031 3030 0000 0000                         1000....

00003888 <_ZL4tone>:
    3888:	3870 0000 3878 0000 3880 0000 0000 0000     p8..x8...8......
    3898:	3333 3333 3333 3fe3                         333333.?
